(lp0
(lp1
F1.1050613370153919
a(dp2
S'content'
p3
I1
sS'log'
p4
I00
sS'receiver'
p5
I0
saa(lp6
F1.904067191560632
a(dp7
g3
I2
sg4
I00
sg5
I0
saa(lp8
F2.1935359556802974
a(dp9
g3
I1
sg4
I00
sg5
I0
saa(lp10
F3.1004706714150636
a(dp11
g3
I2
sg4
I00
sg5
I0
saa(lp12
F5.541173153977942
a(dp13
g3
I3
sg4
I00
sg5
I0
saa(lp14
F6.4344573756495596
a(dp15
g3
I2
sg4
I00
sg5
I0
saa(lp16
F7.825110350501313
a(dp17
g3
I1
sg4
I00
sg5
I0
saa(lp18
F9.43998474624347
a(dp19
g3
I2
sg4
I00
sg5
I0
saa(lp20
F9.454358293807882
a(dp21
g3
I4
sg4
I00
sg5
I0
saa(lp22
F9.606947342043847
a(dp23
g3
I1
sg4
I00
sg5
I0
saa(lp24
F10.626914978121647
a(dp25
g3
I3
sg4
I00
sg5
I0
saa(lp26
F11.847126827202093
a(dp27
g3
I1
sg4
I00
sg5
I0
saa(lp28
F12.066217817301181
a(dp29
g3
I2
sg4
I00
sg5
I0
saa(lp30
F15.596348726870099
a(dp31
g3
I1
sg4
I00
sg5
I0
saa(lp32
F15.766238740329468
a(dp33
g3
I1
sg4
I00
sg5
I0
saa(lp34
F16.804782192534258
a(dp35
g3
I4
sg4
I00
sg5
I0
saa(lp36
F18.33424853367026
a(dp37
g3
I1
sg4
I00
sg5
I0
saa(lp38
F19.3539822910677
a(dp39
g3
I1
sg4
I00
sg5
I0
saa(lp40
F20.41290075558843
a(dp41
g3
I1
sg4
I00
sg5
I0
saa(lp42
F22.993392061718858
a(dp43
g3
I2
sg4
I00
sg5
I0
saa(lp44
F24.87193379782943
a(dp45
g3
I1
sg4
I00
sg5
I0
saa(lp46
F27.550044633048493
a(dp47
g3
I1
sg4
I00
sg5
I0
saa(lp48
F28.496268411503134
a(dp49
g3
I1
sg4
I00
sg5
I0
saa(lp50
F31.258866190904637
a(dp51
g3
I1
sg4
I00
sg5
I0
saa(lp52
F34.031170285021176
a(dp53
g3
I1
sg4
I00
sg5
I0
saa(lp54
F34.53495007324
a(dp55
g3
I2
sg4
I00
sg5
I0
saa(lp56
F35.47255443809238
a(dp57
g3
I1
sg4
I00
sg5
I0
saa(lp58
F36.362037169911154
a(dp59
g3
I3
sg4
I00
sg5
I0
saa(lp60
F38.369573710718534
a(dp61
g3
I2
sg4
I00
sg5
I0
saa(lp62
F39.04909324354935
a(dp63
g3
I1
sg4
I00
sg5
I0
saa(lp64
F40.402924710043656
a(dp65
g3
I1
sg4
I00
sg5
I0
saa(lp66
F42.657409373821665
a(dp67
g3
I1
sg4
I00
sg5
I0
saa(lp68
F43.206048193738596
a(dp69
g3
I2
sg4
I00
sg5
I0
saa(lp70
F44.945924953982484
a(dp71
g3
I1
sg4
I00
sg5
I0
saa(lp72
F44.95445703774512
a(dp73
g3
I2
sg4
I00
sg5
I0
saa(lp74
F50.83980866668124
a(dp75
g3
I1
sg4
I00
sg5
I0
saa(lp76
F51.27692719370758
a(dp77
g3
I3
sg4
I00
sg5
I0
saa(lp78
F52.166223269774015
a(dp79
g3
I1
sg4
I00
sg5
I0
saa(lp80
F53.248564304413144
a(dp81
g3
I3
sg4
I00
sg5
I0
saa(lp82
F53.274609642114164
a(dp83
g3
I4
sg4
I00
sg5
I0
saa(lp84
F53.378204727127724
a(dp85
g3
I3
sg4
I00
sg5
I0
saa(lp86
F54.23136584922871
a(dp87
g3
I1
sg4
I00
sg5
I0
saa(lp88
F58.15973500795432
a(dp89
g3
I1
sg4
I00
sg5
I0
saa(lp90
F59.344218091886646
a(dp91
g3
I1
sg4
I00
sg5
I0
saa(lp92
F65.55620606760372
a(dp93
g3
I3
sg4
I00
sg5
I0
saa(lp94
F66.0530188162483
a(dp95
g3
I2
sg4
I00
sg5
I0
saa(lp96
F68.6568156780725
a(dp97
g3
I1
sg4
I00
sg5
I0
saa(lp98
F69.82223746396649
a(dp99
g3
I3
sg4
I00
sg5
I0
saa(lp100
F70.09423305342638
a(dp101
g3
I3
sg4
I00
sg5
I0
saa(lp102
F72.7467120834901
a(dp103
g3
I3
sg4
I00
sg5
I0
saa(lp104
F72.7904094512294
a(dp105
g3
I1
sg4
I00
sg5
I0
saa(lp106
F74.59328603168069
a(dp107
g3
I2
sg4
I00
sg5
I0
saa(lp108
F75.10114538325237
a(dp109
g3
I2
sg4
I00
sg5
I0
saa(lp110
F75.6191977540866
a(dp111
g3
I2
sg4
I00
sg5
I0
saa(lp112
F78.59286903155159
a(dp113
g3
I1
sg4
I00
sg5
I0
saa(lp114
F79.60784073770293
a(dp115
g3
I1
sg4
I00
sg5
I0
saa(lp116
F79.72327965851905
a(dp117
g3
I3
sg4
I00
sg5
I0
saa(lp118
F81.93907704291729
a(dp119
g3
I1
sg4
I00
sg5
I0
saa(lp120
F83.12598075299834
a(dp121
g3
I1
sg4
I00
sg5
I0
saa(lp122
F83.18820148472176
a(dp123
g3
I3
sg4
I00
sg5
I0
saa(lp124
F87.34286682931048
a(dp125
g3
I1
sg4
I00
sg5
I0
saa(lp126
F87.69071552868255
a(dp127
g3
I1
sg4
I00
sg5
I0
saa(lp128
F87.95759791982991
a(dp129
g3
I2
sg4
I00
sg5
I0
saa(lp130
F88.08729771704915
a(dp131
g3
I1
sg4
I00
sg5
I0
saa(lp132
F89.17995480026501
a(dp133
g3
I2
sg4
I00
sg5
I0
saa(lp134
F89.24823135103398
a(dp135
g3
I4
sg4
I00
sg5
I0
saa(lp136
F93.22414380131617
a(dp137
g3
I3
sg4
I00
sg5
I0
saa(lp138
F94.83431711676191
a(dp139
g3
I3
sg4
I00
sg5
I0
saa(lp140
F96.9540926348077
a(dp141
g3
I1
sg4
I00
sg5
I0
saa(lp142
F98.4829835465432
a(dp143
g3
I2
sg4
I00
sg5
I0
saa(lp144
F98.7319857556013
a(dp145
g3
I4
sg4
I00
sg5
I0
saa(lp146
F102.04424577813587
a(dp147
g3
I1
sg4
I00
sg5
I0
saa(lp148
F102.16828769028709
a(dp149
g3
I1
sg4
I00
sg5
I0
saa(lp150
F105.21152845154035
a(dp151
g3
I1
sg4
I00
sg5
I0
saa(lp152
F105.79634459730283
a(dp153
g3
I2
sg4
I00
sg5
I0
saa(lp154
F107.63354962617147
a(dp155
g3
I2
sg4
I00
sg5
I0
saa(lp156
F108.1447057016438
a(dp157
g3
I1
sg4
I00
sg5
I0
saa(lp158
F108.71335527081587
a(dp159
g3
I3
sg4
I00
sg5
I0
saa(lp160
F109.06220801075186
a(dp161
g3
I1
sg4
I00
sg5
I0
saa(lp162
F109.2225536477999
a(dp163
g3
I1
sg4
I00
sg5
I0
saa(lp164
F110.41741522768535
a(dp165
g3
I4
sg4
I00
sg5
I0
saa(lp166
F111.18158676125292
a(dp167
g3
I3
sg4
I00
sg5
I0
saa(lp168
F113.75305876306176
a(dp169
g3
I1
sg4
I00
sg5
I0
saa(lp170
F115.93917109973792
a(dp171
g3
I4
sg4
I00
sg5
I0
saa(lp172
F116.40166845749826
a(dp173
g3
I3
sg4
I00
sg5
I0
saa(lp174
F117.77925472562781
a(dp175
g3
I1
sg4
I00
sg5
I0
saa(lp176
F119.23117772037934
a(dp177
g3
I1
sg4
I00
sg5
I0
saa(lp178
F121.03754143697623
a(dp179
g3
I3
sg4
I00
sg5
I0
saa(lp180
F121.72183546930613
a(dp181
g3
I1
sg4
I00
sg5
I0
saa(lp182
F122.08743176909398
a(dp183
g3
I1
sg4
I00
sg5
I0
saa(lp184
F122.20113446678599
a(dp185
g3
I1
sg4
I00
sg5
I0
saa(lp186
F123.99313885579687
a(dp187
g3
I1
sg4
I00
sg5
I0
saa(lp188
F126.11411544663883
a(dp189
g3
I2
sg4
I00
sg5
I0
saa(lp190
F126.54914461562373
a(dp191
g3
I1
sg4
I00
sg5
I0
saa(lp192
F128.00994815611688
a(dp193
g3
I3
sg4
I00
sg5
I0
saa(lp194
F128.09406331006505
a(dp195
g3
I2
sg4
I00
sg5
I0
saa(lp196
F128.55594362931453
a(dp197
g3
I1
sg4
I00
sg5
I0
saa(lp198
F131.9625538936367
a(dp199
g3
I4
sg4
I00
sg5
I0
saa(lp200
F132.47897470422032
a(dp201
g3
I1
sg4
I00
sg5
I0
saa(lp202
F133.6042121123774
a(dp203
g3
I1
sg4
I00
sg5
I0
saa(lp204
F133.97599401536917
a(dp205
g3
I1
sg4
I01
sg5
I0
saa(lp206
F136.06639713246085
a(dp207
g3
I2
sg4
I01
sg5
I0
saa(lp208
F138.18963929936567
a(dp209
g3
I2
sg4
I01
sg5
I0
saa(lp210
F139.19908856434046
a(dp211
g3
I3
sg4
I01
sg5
I0
saa(lp212
F139.45119124722402
a(dp213
g3
I3
sg4
I01
sg5
I0
saa(lp214
F139.82510175017995
a(dp215
g3
I2
sg4
I01
sg5
I0
saa(lp216
F143.39090646546043
a(dp217
g3
I3
sg4
I01
sg5
I0
saa(lp218
F143.54683976067295
a(dp219
g3
I1
sg4
I01
sg5
I0
saa(lp220
F143.68223868106364
a(dp221
g3
I3
sg4
I01
sg5
I0
saa(lp222
F144.270871875548
a(dp223
g3
I1
sg4
I01
sg5
I0
saa(lp224
F144.7252549113151
a(dp225
g3
I2
sg4
I01
sg5
I0
saa(lp226
F145.43010303744924
a(dp227
g3
I3
sg4
I01
sg5
I0
saa(lp228
F145.53837824397934
a(dp229
g3
I1
sg4
I01
sg5
I0
saa(lp230
F146.88450676596992
a(dp231
g3
I1
sg4
I01
sg5
I0
saa(lp232
F147.3503430228584
a(dp233
g3
I1
sg4
I01
sg5
I0
saa(lp234
F150.0563434938525
a(dp235
g3
I2
sg4
I01
sg5
I0
saa(lp236
F150.26271745886692
a(dp237
g3
I3
sg4
I01
sg5
I0
saa(lp238
F151.13565868524063
a(dp239
g3
I2
sg4
I01
sg5
I0
saa(lp240
F154.74273677196814
a(dp241
g3
I1
sg4
I01
sg5
I0
saa(lp242
F154.97540469270427
a(dp243
g3
I2
sg4
I01
sg5
I0
saa(lp244
F157.9147286314575
a(dp245
g3
I1
sg4
I01
sg5
I0
saa(lp246
F157.93603111443213
a(dp247
g3
I2
sg4
I01
sg5
I0
saa(lp248
F158.22689085884673
a(dp249
g3
I1
sg4
I01
sg5
I0
saa(lp250
F158.92828895219122
a(dp251
g3
I4
sg4
I01
sg5
I0
saa(lp252
F159.35637623345758
a(dp253
g3
I2
sg4
I01
sg5
I0
saa(lp254
F159.62376516661604
a(dp255
g3
I2
sg4
I01
sg5
I0
saa(lp256
F160.6910324166395
a(dp257
g3
I3
sg4
I01
sg5
I0
saa(lp258
F161.86814041560862
a(dp259
g3
I2
sg4
I01
sg5
I0
saa(lp260
F162.0633196912649
a(dp261
g3
I1
sg4
I01
sg5
I0
saa(lp262
F162.39370386675546
a(dp263
g3
I1
sg4
I01
sg5
I0
saa(lp264
F163.55659421364052
a(dp265
g3
I1
sg4
I01
sg5
I0
saa(lp266
F164.89582003083322
a(dp267
g3
I1
sg4
I01
sg5
I0
saa(lp268
F165.89681898445778
a(dp269
g3
I1
sg4
I01
sg5
I0
saa(lp270
F167.2343721834411
a(dp271
g3
I3
sg4
I01
sg5
I0
saa(lp272
F173.7940634568016
a(dp273
g3
I1
sg4
I01
sg5
I0
saa(lp274
F174.6348769842595
a(dp275
g3
I3
sg4
I01
sg5
I0
saa(lp276
F175.80854370782637
a(dp277
g3
I1
sg4
I01
sg5
I0
saa(lp278
F176.62227376197112
a(dp279
g3
I1
sg4
I01
sg5
I0
saa(lp280
F176.7413212595794
a(dp281
g3
I1
sg4
I01
sg5
I0
saa(lp282
F176.80204208336886
a(dp283
g3
I4
sg4
I01
sg5
I0
saa(lp284
F176.908051216618
a(dp285
g3
I1
sg4
I01
sg5
I0
saa(lp286
F177.62650787142735
a(dp287
g3
I4
sg4
I01
sg5
I0
saa(lp288
F177.69374383991067
a(dp289
g3
I4
sg4
I01
sg5
I0
saa(lp290
F177.72172729711502
a(dp291
g3
I1
sg4
I01
sg5
I0
saa(lp292
F178.941406752007
a(dp293
g3
I1
sg4
I01
sg5
I0
saa(lp294
F179.61933456610905
a(dp295
g3
I2
sg4
I01
sg5
I0
saa(lp296
F179.82681166749916
a(dp297
g3
I3
sg4
I01
sg5
I0
saa(lp298
F180.54771144694044
a(dp299
g3
I2
sg4
I01
sg5
I0
saa(lp300
F181.00127302334036
a(dp301
g3
I1
sg4
I01
sg5
I0
saa(lp302
F181.52984338477992
a(dp303
g3
I1
sg4
I01
sg5
I0
saa(lp304
F181.65099311415216
a(dp305
g3
I1
sg4
I01
sg5
I0
saa(lp306
F182.56197231856189
a(dp307
g3
I1
sg4
I01
sg5
I0
saa(lp308
F183.5283456186753
a(dp309
g3
I2
sg4
I01
sg5
I0
saa(lp310
F185.08119495641157
a(dp311
g3
I4
sg4
I01
sg5
I0
saa(lp312
F186.4819478471007
a(dp313
g3
I1
sg4
I01
sg5
I0
saa(lp314
F189.15379337990245
a(dp315
g3
I4
sg4
I01
sg5
I0
saa(lp316
F190.60802422243052
a(dp317
g3
I1
sg4
I01
sg5
I0
saa(lp318
F190.67817213065868
a(dp319
g3
I1
sg4
I01
sg5
I0
saa(lp320
F191.29174916142895
a(dp321
g3
I1
sg4
I01
sg5
I0
saa(lp322
F192.84394013270807
a(dp323
g3
I1
sg4
I01
sg5
I0
saa(lp324
F192.8868427812293
a(dp325
g3
I1
sg4
I01
sg5
I0
saa(lp326
F194.00093648968286
a(dp327
g3
I1
sg4
I01
sg5
I0
saa(lp328
F194.3137515731002
a(dp329
g3
I2
sg4
I01
sg5
I0
saa(lp330
F198.28396134135687
a(dp331
g3
I2
sg4
I01
sg5
I0
saa(lp332
F199.17249494982968
a(dp333
g3
I2
sg4
I01
sg5
I0
saa(lp334
F200.0263968630703
a(dp335
g3
I2
sg4
I01
sg5
I0
saa(lp336
F200.1373760535809
a(dp337
g3
I1
sg4
I01
sg5
I0
saa(lp338
F201.87383378583257
a(dp339
g3
I2
sg4
I01
sg5
I0
saa(lp340
F201.98692458245833
a(dp341
g3
I3
sg4
I01
sg5
I0
saa(lp342
F202.2192919515899
a(dp343
g3
I3
sg4
I01
sg5
I0
saa(lp344
F202.33667360297187
a(dp345
g3
I4
sg4
I01
sg5
I0
saa(lp346
F204.40872042116672
a(dp347
g3
I2
sg4
I01
sg5
I0
saa(lp348
F205.100130888882
a(dp349
g3
I1
sg4
I01
sg5
I0
saa(lp350
F206.19210606378437
a(dp351
g3
I1
sg4
I01
sg5
I0
saa(lp352
F206.30619427903
a(dp353
g3
I1
sg4
I01
sg5
I0
saa(lp354
F206.7628484221781
a(dp355
g3
I1
sg4
I01
sg5
I0
saa(lp356
F207.36177424784177
a(dp357
g3
I4
sg4
I01
sg5
I0
saa(lp358
F208.52315246254705
a(dp359
g3
I2
sg4
I01
sg5
I0
saa(lp360
F208.7398460008258
a(dp361
g3
I2
sg4
I01
sg5
I0
saa(lp362
F209.87085272200113
a(dp363
g3
I4
sg4
I01
sg5
I0
saa(lp364
F209.91494381610352
a(dp365
g3
I2
sg4
I01
sg5
I0
saa(lp366
F210.61239839139137
a(dp367
g3
I2
sg4
I01
sg5
I0
saa(lp368
F210.9319128343913
a(dp369
g3
I4
sg4
I01
sg5
I0
saa(lp370
F211.3582401139727
a(dp371
g3
I2
sg4
I01
sg5
I0
saa(lp372
F212.00884607605244
a(dp373
g3
I4
sg4
I01
sg5
I0
saa(lp374
F212.05597167222024
a(dp375
g3
I1
sg4
I01
sg5
I0
saa(lp376
F213.83837950683528
a(dp377
g3
I2
sg4
I01
sg5
I0
saa(lp378
F214.08022460931116
a(dp379
g3
I1
sg4
I01
sg5
I0
saa(lp380
F216.56529644637337
a(dp381
g3
I1
sg4
I01
sg5
I0
saa(lp382
F217.24933065279686
a(dp383
g3
I4
sg4
I01
sg5
I0
saa(lp384
F221.3328848506586
a(dp385
g3
I1
sg4
I01
sg5
I0
saa(lp386
F223.13510805871988
a(dp387
g3
I1
sg4
I01
sg5
I0
saa(lp388
F224.00657124260886
a(dp389
g3
I1
sg4
I01
sg5
I0
saa(lp390
F224.7342980233055
a(dp391
g3
I4
sg4
I01
sg5
I0
saa(lp392
F224.9316176238984
a(dp393
g3
I1
sg4
I01
sg5
I0
saa(lp394
F225.72744639440592
a(dp395
g3
I1
sg4
I01
sg5
I0
saa(lp396
F229.04804093355594
a(dp397
g3
I4
sg4
I01
sg5
I0
saa(lp398
F229.49902433241243
a(dp399
g3
I1
sg4
I01
sg5
I0
saa(lp400
F229.8818680985097
a(dp401
g3
I2
sg4
I01
sg5
I0
saa(lp402
F230.69163258515053
a(dp403
g3
I3
sg4
I01
sg5
I0
saa(lp404
F231.28632969735978
a(dp405
g3
I3
sg4
I01
sg5
I0
saa(lp406
F232.9564343169748
a(dp407
g3
I4
sg4
I01
sg5
I0
saa(lp408
F234.36199314815306
a(dp409
g3
I3
sg4
I01
sg5
I0
saa(lp410
F235.96655381127354
a(dp411
g3
I2
sg4
I01
sg5
I0
saa(lp412
F236.09242722285435
a(dp413
g3
I2
sg4
I01
sg5
I0
saa(lp414
F236.89002609935739
a(dp415
g3
I1
sg4
I01
sg5
I0
saa(lp416
F237.63062187216437
a(dp417
g3
I4
sg4
I01
sg5
I0
saa(lp418
F238.50874199412175
a(dp419
g3
I1
sg4
I01
sg5
I0
saa(lp420
F239.24164164735754
a(dp421
g3
I1
sg4
I01
sg5
I0
saa(lp422
F239.68733379631738
a(dp423
g3
I1
sg4
I01
sg5
I0
saa(lp424
F239.80562977607863
a(dp425
g3
I2
sg4
I01
sg5
I0
saa(lp426
F240.95132284789773
a(dp427
g3
I1
sg4
I01
sg5
I0
saa(lp428
F242.38034382608674
a(dp429
g3
I2
sg4
I01
sg5
I0
saa(lp430
F242.7812340485112
a(dp431
g3
I1
sg4
I01
sg5
I0
saa(lp432
F245.59059052008365
a(dp433
g3
I2
sg4
I01
sg5
I0
saa(lp434
F248.2923404428545
a(dp435
g3
I1
sg4
I01
sg5
I0
saa(lp436
F249.0835979217117
a(dp437
g3
I2
sg4
I01
sg5
I0
saa(lp438
F249.10630976710593
a(dp439
g3
I1
sg4
I01
sg5
I0
saa(lp440
F252.5039472440385
a(dp441
g3
I2
sg4
I01
sg5
I0
saa(lp442
F253.12909932507762
a(dp443
g3
I1
sg4
I01
sg5
I0
saa(lp444
F253.26007007922473
a(dp445
g3
I3
sg4
I01
sg5
I0
saa(lp446
F254.34696338016337
a(dp447
g3
I2
sg4
I01
sg5
I0
saa(lp448
F255.09799342634284
a(dp449
g3
I2
sg4
I01
sg5
I0
saa(lp450
F255.76056609377298
a(dp451
g3
I1
sg4
I01
sg5
I0
saa(lp452
F255.95715818546506
a(dp453
g3
I3
sg4
I01
sg5
I0
saa(lp454
F257.8393817385144
a(dp455
g3
I2
sg4
I01
sg5
I0
saa(lp456
F258.7778555120388
a(dp457
g3
I2
sg4
I01
sg5
I0
saa(lp458
F258.9741426170402
a(dp459
g3
I1
sg4
I01
sg5
I0
saa(lp460
F259.622776331187
a(dp461
g3
I1
sg4
I01
sg5
I0
saa(lp462
F259.8134450721331
a(dp463
g3
I1
sg4
I01
sg5
I0
saa(lp464
F260.3336690428661
a(dp465
g3
I1
sg4
I01
sg5
I0
saa(lp466
F260.5651328918852
a(dp467
g3
I1
sg4
I01
sg5
I0
saa(lp468
F260.6108795991991
a(dp469
g3
I1
sg4
I01
sg5
I0
saa(lp470
F260.9033057802854
a(dp471
g3
I1
sg4
I01
sg5
I0
saa(lp472
F261.5141100324331
a(dp473
g3
I1
sg4
I01
sg5
I0
saa(lp474
F263.80262315029967
a(dp475
g3
I3
sg4
I01
sg5
I0
saa(lp476
F264.22388166711136
a(dp477
g3
I4
sg4
I01
sg5
I0
saa(lp478
F265.081544518824
a(dp479
g3
I1
sg4
I01
sg5
I0
saa(lp480
F266.6629421389651
a(dp481
g3
I2
sg4
I01
sg5
I0
saa(lp482
F266.66634181817676
a(dp483
g3
I2
sg4
I01
sg5
I0
saa(lp484
F267.450842573936
a(dp485
g3
I3
sg4
I01
sg5
I0
saa(lp486
F267.5789814752895
a(dp487
g3
I1
sg4
I01
sg5
I0
saa(lp488
F268.6194973779414
a(dp489
g3
I2
sg4
I01
sg5
I0
saa(lp490
F269.73194683028504
a(dp491
g3
I2
sg4
I01
sg5
I0
saa(lp492
F270.76654353692595
a(dp493
g3
I1
sg4
I01
sg5
I0
saa(lp494
F270.9807262508566
a(dp495
g3
I4
sg4
I01
sg5
I0
saa(lp496
F271.09119659588157
a(dp497
g3
I4
sg4
I01
sg5
I0
saa(lp498
F271.2631822163724
a(dp499
g3
I1
sg4
I01
sg5
I0
saa(lp500
F273.44108777714865
a(dp501
g3
I1
sg4
I01
sg5
I0
saa(lp502
F274.96954343492297
a(dp503
g3
I1
sg4
I01
sg5
I0
saa(lp504
F276.0534501877654
a(dp505
g3
I1
sg4
I01
sg5
I0
saa(lp506
F276.4920407539945
a(dp507
g3
I1
sg4
I01
sg5
I0
saa(lp508
F276.4943968704012
a(dp509
g3
I3
sg4
I01
sg5
I0
saa(lp510
F276.64452596441384
a(dp511
g3
I1
sg4
I01
sg5
I0
saa(lp512
F277.8775652700644
a(dp513
g3
I1
sg4
I01
sg5
I0
saa(lp514
F280.4053149158573
a(dp515
g3
I1
sg4
I01
sg5
I0
saa(lp516
F281.21592615932275
a(dp517
g3
I2
sg4
I01
sg5
I0
saa(lp518
F281.2996720894757
a(dp519
g3
I1
sg4
I01
sg5
I0
saa(lp520
F283.7136082534568
a(dp521
g3
I1
sg4
I01
sg5
I0
saa(lp522
F285.8015826589905
a(dp523
g3
I1
sg4
I01
sg5
I0
saa(lp524
F286.0890672528745
a(dp525
g3
I1
sg4
I01
sg5
I0
saa(lp526
F286.76231425722096
a(dp527
g3
I1
sg4
I01
sg5
I0
saa(lp528
F288.2285340792359
a(dp529
g3
I1
sg4
I01
sg5
I0
saa(lp530
F288.31897592210305
a(dp531
g3
I2
sg4
I01
sg5
I0
saa(lp532
F288.4371741217589
a(dp533
g3
I1
sg4
I01
sg5
I0
saa(lp534
F288.6085515023826
a(dp535
g3
I1
sg4
I01
sg5
I0
saa(lp536
F288.70883564883826
a(dp537
g3
I3
sg4
I01
sg5
I0
saa(lp538
F291.50613691994755
a(dp539
g3
I2
sg4
I01
sg5
I0
saa(lp540
F292.7713500501026
a(dp541
g3
I2
sg4
I01
sg5
I0
saa(lp542
F294.34729159713356
a(dp543
g3
I1
sg4
I01
sg5
I0
saa(lp544
F294.63901437985186
a(dp545
g3
I3
sg4
I01
sg5
I0
saa(lp546
F294.7327585218411
a(dp547
g3
I1
sg4
I01
sg5
I0
saa(lp548
F297.69318447341163
a(dp549
g3
I3
sg4
I01
sg5
I0
saa(lp550
F298.282972468846
a(dp551
g3
I2
sg4
I01
sg5
I0
saa(lp552
F300.2036026873301
a(dp553
g3
I4
sg4
I01
sg5
I0
saa(lp554
F300.3266960475245
a(dp555
g3
I3
sg4
I01
sg5
I0
saa(lp556
F301.1575488548105
a(dp557
g3
I1
sg4
I01
sg5
I0
saa(lp558
F301.64017011249723
a(dp559
g3
I3
sg4
I01
sg5
I0
saa(lp560
F301.8428060451078
a(dp561
g3
I1
sg4
I01
sg5
I0
saa(lp562
F302.3930573283533
a(dp563
g3
I3
sg4
I01
sg5
I0
saa(lp564
F304.4511908190501
a(dp565
g3
I2
sg4
I01
sg5
I0
saa(lp566
F307.51049559510096
a(dp567
g3
I4
sg4
I01
sg5
I0
saa(lp568
F307.97499169714
a(dp569
g3
I2
sg4
I01
sg5
I0
saa(lp570
F308.4937252110798
a(dp571
g3
I1
sg4
I01
sg5
I0
saa(lp572
F309.5463811849022
a(dp573
g3
I1
sg4
I01
sg5
I0
saa(lp574
F313.1439551176785
a(dp575
g3
I1
sg4
I01
sg5
I0
saa(lp576
F314.8024685309606
a(dp577
g3
I1
sg4
I01
sg5
I0
saa(lp578
F315.6175504524365
a(dp579
g3
I2
sg4
I01
sg5
I0
saa(lp580
F316.3302562099322
a(dp581
g3
I3
sg4
I01
sg5
I0
saa(lp582
F316.6500868441563
a(dp583
g3
I3
sg4
I01
sg5
I0
saa(lp584
F317.80996869457397
a(dp585
g3
I2
sg4
I01
sg5
I0
saa(lp586
F317.9188198466171
a(dp587
g3
I1
sg4
I01
sg5
I0
saa(lp588
F319.4740946260975
a(dp589
g3
I4
sg4
I01
sg5
I0
saa(lp590
F319.57753360830617
a(dp591
g3
I3
sg4
I01
sg5
I0
saa(lp592
F320.6940278321221
a(dp593
g3
I1
sg4
I01
sg5
I0
saa(lp594
F320.93940071184664
a(dp595
g3
I2
sg4
I01
sg5
I0
saa(lp596
F324.0197431034615
a(dp597
g3
I1
sg4
I01
sg5
I0
saa(lp598
F324.1844421974716
a(dp599
g3
I1
sg4
I01
sg5
I0
saa(lp600
F324.91946191074953
a(dp601
g3
I1
sg4
I01
sg5
I0
saa(lp602
F325.503514173423
a(dp603
g3
I2
sg4
I01
sg5
I0
saa(lp604
F325.5674491604014
a(dp605
g3
I1
sg4
I01
sg5
I0
saa(lp606
F325.59389088058174
a(dp607
g3
I1
sg4
I01
sg5
I0
saa(lp608
F326.0649011277921
a(dp609
g3
I2
sg4
I01
sg5
I0
saa(lp610
F326.2288634042857
a(dp611
g3
I4
sg4
I01
sg5
I0
saa(lp612
F327.1592319403541
a(dp613
g3
I4
sg4
I01
sg5
I0
saa(lp614
F328.20001941283886
a(dp615
g3
I1
sg4
I01
sg5
I0
saa(lp616
F329.01182709988376
a(dp617
g3
I2
sg4
I01
sg5
I0
saa(lp618
F329.45509895890154
a(dp619
g3
I3
sg4
I01
sg5
I0
saa(lp620
F330.8080309874095
a(dp621
g3
I1
sg4
I01
sg5
I0
saa(lp622
F330.9032473445084
a(dp623
g3
I1
sg4
I01
sg5
I0
saa(lp624
F331.6179200432223
a(dp625
g3
I1
sg4
I01
sg5
I0
saa(lp626
F331.8018328731669
a(dp627
g3
I2
sg4
I01
sg5
I0
saa(lp628
F333.16182139984056
a(dp629
g3
I2
sg4
I01
sg5
I0
saa(lp630
F334.5150466045724
a(dp631
g3
I1
sg4
I01
sg5
I0
saa(lp632
F334.67327411228985
a(dp633
g3
I1
sg4
I01
sg5
I0
saa(lp634
F335.046534186292
a(dp635
g3
I1
sg4
I01
sg5
I0
saa(lp636
F338.9425550090117
a(dp637
g3
I3
sg4
I01
sg5
I0
saa(lp638
F339.32417729551645
a(dp639
g3
I1
sg4
I01
sg5
I0
saa(lp640
F342.9388448253913
a(dp641
g3
I1
sg4
I01
sg5
I0
saa(lp642
F343.3572724167264
a(dp643
g3
I4
sg4
I01
sg5
I0
saa(lp644
F343.4958151486006
a(dp645
g3
I1
sg4
I01
sg5
I0
saa(lp646
F344.35340344962543
a(dp647
g3
I1
sg4
I01
sg5
I0
saa(lp648
F348.60074663268364
a(dp649
g3
I1
sg4
I01
sg5
I0
saa(lp650
F350.45621799191946
a(dp651
g3
I3
sg4
I01
sg5
I0
saa(lp652
F350.9279293899281
a(dp653
g3
I1
sg4
I01
sg5
I0
saa(lp654
F351.2087866688662
a(dp655
g3
I2
sg4
I01
sg5
I0
saa(lp656
F351.33628946544013
a(dp657
g3
I1
sg4
I01
sg5
I0
saa(lp658
F351.434407185718
a(dp659
g3
I1
sg4
I01
sg5
I0
saa(lp660
F353.4966227060382
a(dp661
g3
I1
sg4
I01
sg5
I0
saa(lp662
F353.815285524062
a(dp663
g3
I1
sg4
I01
sg5
I0
saa(lp664
F354.56948102770053
a(dp665
g3
I3
sg4
I01
sg5
I0
saa(lp666
F357.8224369219295
a(dp667
g3
I2
sg4
I01
sg5
I0
saa(lp668
F358.93792202529494
a(dp669
g3
I4
sg4
I01
sg5
I0
saa(lp670
F361.61109198581283
a(dp671
g3
I2
sg4
I01
sg5
I0
saa(lp672
F361.79316025951846
a(dp673
g3
I1
sg4
I01
sg5
I0
saa(lp674
F363.4924473478674
a(dp675
g3
I2
sg4
I01
sg5
I0
saa(lp676
F364.50184690189883
a(dp677
g3
I3
sg4
I01
sg5
I0
saa(lp678
F368.16737322716165
a(dp679
g3
I2
sg4
I01
sg5
I0
saa(lp680
F368.20418577328826
a(dp681
g3
I1
sg4
I01
sg5
I0
saa(lp682
F371.71835726020714
a(dp683
g3
I4
sg4
I01
sg5
I0
saa(lp684
F372.3983279173057
a(dp685
g3
I1
sg4
I01
sg5
I0
saa(lp686
F372.8736143046401
a(dp687
g3
I4
sg4
I01
sg5
I0
saa(lp688
F372.888458298449
a(dp689
g3
I3
sg4
I01
sg5
I0
saa(lp690
F373.4074501435193
a(dp691
g3
I1
sg4
I01
sg5
I0
saa(lp692
F375.23873644348544
a(dp693
g3
I1
sg4
I01
sg5
I0
saa(lp694
F376.0124683025791
a(dp695
g3
I1
sg4
I01
sg5
I0
saa(lp696
F377.3481907269729
a(dp697
g3
I2
sg4
I01
sg5
I0
saa(lp698
F377.85113325330013
a(dp699
g3
I1
sg4
I01
sg5
I0
saa(lp700
F378.1194731251579
a(dp701
g3
I1
sg4
I01
sg5
I0
saa(lp702
F378.4530362307374
a(dp703
g3
I1
sg4
I01
sg5
I0
saa(lp704
F379.13569018867275
a(dp705
g3
I1
sg4
I01
sg5
I0
saa(lp706
F380.93964441858265
a(dp707
g3
I4
sg4
I01
sg5
I0
saa(lp708
F383.1056775303871
a(dp709
g3
I3
sg4
I01
sg5
I0
saa(lp710
F383.37534683932773
a(dp711
g3
I1
sg4
I01
sg5
I0
saa(lp712
F383.53748768134295
a(dp713
g3
I1
sg4
I01
sg5
I0
saa(lp714
F383.63062204185934
a(dp715
g3
I4
sg4
I01
sg5
I0
saa(lp716
F383.63188747916166
a(dp717
g3
I3
sg4
I01
sg5
I0
saa(lp718
F384.0083212767283
a(dp719
g3
I1
sg4
I01
sg5
I0
saa(lp720
F386.7490903465122
a(dp721
g3
I2
sg4
I01
sg5
I0
saa(lp722
F387.6317121324613
a(dp723
g3
I1
sg4
I01
sg5
I0
saa(lp724
F390.0972225139328
a(dp725
g3
I2
sg4
I01
sg5
I0
saa(lp726
F390.32654015769253
a(dp727
g3
I4
sg4
I01
sg5
I0
saa(lp728
F390.73718394235965
a(dp729
g3
I1
sg4
I01
sg5
I0
saa(lp730
F392.28681080719724
a(dp731
g3
I2
sg4
I01
sg5
I0
saa(lp732
F394.05144027459124
a(dp733
g3
I1
sg4
I01
sg5
I0
saa(lp734
F395.1326769902499
a(dp735
g3
I2
sg4
I01
sg5
I0
saa(lp736
F397.20932900448156
a(dp737
g3
I1
sg4
I01
sg5
I0
saa(lp738
F397.94234808811615
a(dp739
g3
I2
sg4
I01
sg5
I0
saa(lp740
F397.9558026596792
a(dp741
g3
I1
sg4
I01
sg5
I0
saa(lp742
F398.2808597107475
a(dp743
g3
I1
sg4
I01
sg5
I0
saa(lp744
F399.11516867779693
a(dp745
g3
I2
sg4
I01
sg5
I0
saa(lp746
F399.54779545574905
a(dp747
g3
I1
sg4
I01
sg5
I0
saa(lp748
F399.58561752931655
a(dp749
g3
I3
sg4
I01
sg5
I0
saa(lp750
F399.85756658093044
a(dp751
g3
I4
sg4
I01
sg5
I0
saa(lp752
F400.1385266009141
a(dp753
g3
I1
sg4
I01
sg5
I0
saa(lp754
F400.7262249800947
a(dp755
g3
I1
sg4
I01
sg5
I0
saa(lp756
F402.76245018215894
a(dp757
g3
I1
sg4
I01
sg5
I0
saa(lp758
F403.1243019171073
a(dp759
g3
I1
sg4
I01
sg5
I0
saa(lp760
F403.3802203856992
a(dp761
g3
I1
sg4
I01
sg5
I0
saa(lp762
F404.3100233900267
a(dp763
g3
I2
sg4
I01
sg5
I0
saa(lp764
F404.68936640744994
a(dp765
g3
I1
sg4
I01
sg5
I0
saa(lp766
F406.3673236999302
a(dp767
g3
I1
sg4
I01
sg5
I0
saa(lp768
F410.38267848943974
a(dp769
g3
I1
sg4
I01
sg5
I0
saa(lp770
F410.3899033917678
a(dp771
g3
I1
sg4
I01
sg5
I0
saa(lp772
F410.5683747170153
a(dp773
g3
I1
sg4
I01
sg5
I0
saa(lp774
F411.6060893139478
a(dp775
g3
I1
sg4
I01
sg5
I0
saa(lp776
F416.68524744905307
a(dp777
g3
I3
sg4
I01
sg5
I0
saa(lp778
F417.0082650791035
a(dp779
g3
I1
sg4
I01
sg5
I0
saa(lp780
F421.22642392162743
a(dp781
g3
I3
sg4
I01
sg5
I0
saa(lp782
F421.6909713669391
a(dp783
g3
I4
sg4
I01
sg5
I0
saa(lp784
F422.31015922080843
a(dp785
g3
I2
sg4
I01
sg5
I0
saa(lp786
F423.3004827762181
a(dp787
g3
I4
sg4
I01
sg5
I0
saa(lp788
F423.61206424085276
a(dp789
g3
I1
sg4
I01
sg5
I0
saa(lp790
F424.843025959197
a(dp791
g3
I2
sg4
I01
sg5
I0
saa(lp792
F429.60983186122
a(dp793
g3
I1
sg4
I01
sg5
I0
saa(lp794
F429.81720324541203
a(dp795
g3
I3
sg4
I01
sg5
I0
saa(lp796
F431.4284048796785
a(dp797
g3
I3
sg4
I01
sg5
I0
saa(lp798
F431.8992690893181
a(dp799
g3
I1
sg4
I01
sg5
I0
saa(lp800
F432.1436283841363
a(dp801
g3
I2
sg4
I01
sg5
I0
saa(lp802
F432.7402527647921
a(dp803
g3
I2
sg4
I01
sg5
I0
saa(lp804
F435.12624753275696
a(dp805
g3
I1
sg4
I01
sg5
I0
saa(lp806
F436.01120997383254
a(dp807
g3
I4
sg4
I01
sg5
I0
saa(lp808
F436.77738094151505
a(dp809
g3
I1
sg4
I01
sg5
I0
saa(lp810
F436.8283496523777
a(dp811
g3
I3
sg4
I01
sg5
I0
saa(lp812
F437.1005067735665
a(dp813
g3
I2
sg4
I01
sg5
I0
saa(lp814
F438.02679351112283
a(dp815
g3
I1
sg4
I01
sg5
I0
saa(lp816
F438.50299335226106
a(dp817
g3
I3
sg4
I01
sg5
I0
saa(lp818
F441.36625903714895
a(dp819
g3
I1
sg4
I01
sg5
I0
saa(lp820
F443.2161159372513
a(dp821
g3
I1
sg4
I01
sg5
I0
saa(lp822
F444.5266900518271
a(dp823
g3
I1
sg4
I01
sg5
I0
saa(lp824
F444.9431025436109
a(dp825
g3
I3
sg4
I01
sg5
I0
saa(lp826
F445.4832526519316
a(dp827
g3
I1
sg4
I01
sg5
I0
saa(lp828
F445.58015039456853
a(dp829
g3
I3
sg4
I01
sg5
I0
saa(lp830
F445.8838173795692
a(dp831
g3
I2
sg4
I01
sg5
I0
saa(lp832
F447.918275988043
a(dp833
g3
I2
sg4
I01
sg5
I0
saa(lp834
F448.53699301551205
a(dp835
g3
I3
sg4
I01
sg5
I0
saa(lp836
F450.207225799196
a(dp837
g3
I3
sg4
I01
sg5
I0
saa(lp838
F450.40463555679315
a(dp839
g3
I1
sg4
I01
sg5
I0
saa(lp840
F450.88515657591506
a(dp841
g3
I1
sg4
I01
sg5
I0
saa(lp842
F454.36060351143243
a(dp843
g3
I4
sg4
I01
sg5
I0
saa(lp844
F454.7626975025767
a(dp845
g3
I1
sg4
I01
sg5
I0
saa(lp846
F455.5490303284277
a(dp847
g3
I1
sg4
I01
sg5
I0
saa(lp848
F455.83602380345167
a(dp849
g3
I2
sg4
I01
sg5
I0
saa(lp850
F455.8821916932987
a(dp851
g3
I1
sg4
I01
sg5
I0
saa(lp852
F456.1464726036944
a(dp853
g3
I2
sg4
I01
sg5
I0
saa(lp854
F457.95303394801226
a(dp855
g3
I1
sg4
I01
sg5
I0
saa(lp856
F459.53414402197257
a(dp857
g3
I1
sg4
I01
sg5
I0
saa(lp858
F460.01836310915684
a(dp859
g3
I2
sg4
I01
sg5
I0
saa(lp860
F463.4343794996203
a(dp861
g3
I1
sg4
I01
sg5
I0
saa(lp862
F465.7708432631807
a(dp863
g3
I1
sg4
I01
sg5
I0
saa(lp864
F466.20220161497065
a(dp865
g3
I1
sg4
I01
sg5
I0
saa(lp866
F466.6576916753609
a(dp867
g3
I3
sg4
I01
sg5
I0
saa(lp868
F468.48606401620555
a(dp869
g3
I1
sg4
I01
sg5
I0
saa(lp870
F468.5279227363788
a(dp871
g3
I2
sg4
I01
sg5
I0
saa(lp872
F469.7775473901442
a(dp873
g3
I4
sg4
I01
sg5
I0
saa(lp874
F470.9900635519631
a(dp875
g3
I4
sg4
I01
sg5
I0
saa(lp876
F471.12658585268923
a(dp877
g3
I1
sg4
I01
sg5
I0
saa(lp878
F471.4133258662099
a(dp879
g3
I1
sg4
I01
sg5
I0
saa(lp880
F471.5534457792265
a(dp881
g3
I4
sg4
I01
sg5
I0
saa(lp882
F471.7819389541946
a(dp883
g3
I3
sg4
I01
sg5
I0
saa(lp884
F472.32480149625013
a(dp885
g3
I1
sg4
I01
sg5
I0
saa(lp886
F472.47958376647176
a(dp887
g3
I4
sg4
I01
sg5
I0
saa(lp888
F476.3367460136613
a(dp889
g3
I2
sg4
I01
sg5
I0
saa(lp890
F476.44078489998645
a(dp891
g3
I3
sg4
I01
sg5
I0
saa(lp892
F476.5637894658694
a(dp893
g3
I4
sg4
I01
sg5
I0
saa(lp894
F478.56152490872364
a(dp895
g3
I1
sg4
I01
sg5
I0
saa(lp896
F478.70821635026664
a(dp897
g3
I3
sg4
I01
sg5
I0
saa(lp898
F479.4372676040851
a(dp899
g3
I2
sg4
I01
sg5
I0
saa(lp900
F482.1318609701689
a(dp901
g3
I2
sg4
I01
sg5
I0
saa(lp902
F482.31383786060394
a(dp903
g3
I2
sg4
I01
sg5
I0
saa(lp904
F482.73828618819294
a(dp905
g3
I2
sg4
I01
sg5
I0
saa(lp906
F482.97038536975737
a(dp907
g3
I3
sg4
I01
sg5
I0
saa(lp908
F483.42366184739234
a(dp909
g3
I1
sg4
I01
sg5
I0
saa(lp910
F483.4313466887742
a(dp911
g3
I3
sg4
I01
sg5
I0
saa(lp912
F487.95300848737077
a(dp913
g3
I1
sg4
I01
sg5
I0
saa(lp914
F489.2459141813762
a(dp915
g3
I2
sg4
I01
sg5
I0
saa(lp916
F489.821026208203
a(dp917
g3
I3
sg4
I01
sg5
I0
saa(lp918
F490.77267129910837
a(dp919
g3
I2
sg4
I01
sg5
I0
saa(lp920
F491.99946213273716
a(dp921
g3
I2
sg4
I01
sg5
I0
saa(lp922
F492.1830352709287
a(dp923
g3
I2
sg4
I01
sg5
I0
saa(lp924
F492.4056350171191
a(dp925
g3
I1
sg4
I01
sg5
I0
saa(lp926
F493.7707385000077
a(dp927
g3
I2
sg4
I01
sg5
I0
saa(lp928
F494.25345362797907
a(dp929
g3
I3
sg4
I01
sg5
I0
saa(lp930
F496.40932379023263
a(dp931
g3
I1
sg4
I01
sg5
I0
saa(lp932
F496.77580897721293
a(dp933
g3
I1
sg4
I01
sg5
I0
saa(lp934
F496.7929016338349
a(dp935
g3
I2
sg4
I01
sg5
I0
saa(lp936
F497.67233820481596
a(dp937
g3
I2
sg4
I01
sg5
I0
saa(lp938
F497.88947096296477
a(dp939
g3
I4
sg4
I01
sg5
I0
saa(lp940
F498.18931307409207
a(dp941
g3
I4
sg4
I01
sg5
I0
saa(lp942
F498.46392083235247
a(dp943
g3
I1
sg4
I01
sg5
I0
saa(lp944
F499.4918431988853
a(dp945
g3
I3
sg4
I01
sg5
I0
saa(lp946
F499.5131507428963
a(dp947
g3
I1
sg4
I01
sg5
I0
saa(lp948
F500.1426190417926
a(dp949
g3
I4
sg4
I01
sg5
I0
saa(lp950
F500.22170553868835
a(dp951
g3
I1
sg4
I01
sg5
I0
saa(lp952
F501.1269383675296
a(dp953
g3
I3
sg4
I01
sg5
I0
saa(lp954
F501.4530035600367
a(dp955
g3
I3
sg4
I01
sg5
I0
saa(lp956
F501.9273227376212
a(dp957
g3
I4
sg4
I01
sg5
I0
saa(lp958
F502.087006279698
a(dp959
g3
I1
sg4
I01
sg5
I0
saa(lp960
F502.2576122502437
a(dp961
g3
I1
sg4
I01
sg5
I0
saa(lp962
F502.42206011314266
a(dp963
g3
I3
sg4
I01
sg5
I0
saa(lp964
F502.5341892125095
a(dp965
g3
I3
sg4
I01
sg5
I0
saa(lp966
F503.2834618944352
a(dp967
g3
I1
sg4
I01
sg5
I0
saa(lp968
F504.7882254638109
a(dp969
g3
I3
sg4
I01
sg5
I0
saa(lp970
F506.5969039426681
a(dp971
g3
I3
sg4
I01
sg5
I0
saa(lp972
F506.69343873506307
a(dp973
g3
I3
sg4
I01
sg5
I0
saa(lp974
F507.44448905382114
a(dp975
g3
I4
sg4
I01
sg5
I0
saa(lp976
F510.33862328811324
a(dp977
g3
I3
sg4
I01
sg5
I0
saa(lp978
F512.2405892743762
a(dp979
g3
I3
sg4
I01
sg5
I0
saa(lp980
F513.0566251535776
a(dp981
g3
I1
sg4
I01
sg5
I0
saa(lp982
F513.7814898096702
a(dp983
g3
I1
sg4
I01
sg5
I0
saa(lp984
F514.212769359578
a(dp985
g3
I1
sg4
I01
sg5
I0
saa(lp986
F515.0119901176781
a(dp987
g3
I2
sg4
I01
sg5
I0
saa(lp988
F517.1182938552935
a(dp989
g3
I1
sg4
I01
sg5
I0
saa(lp990
F517.1564954021702
a(dp991
g3
I1
sg4
I01
sg5
I0
saa(lp992
F518.1601507691731
a(dp993
g3
I2
sg4
I01
sg5
I0
saa(lp994
F518.5812372125235
a(dp995
g3
I2
sg4
I01
sg5
I0
saa(lp996
F518.9007669373999
a(dp997
g3
I1
sg4
I01
sg5
I0
saa(lp998
F520.2417745125289
a(dp999
g3
I3
sg4
I01
sg5
I0
saa(lp1000
F523.3280383547325
a(dp1001
g3
I1
sg4
I01
sg5
I0
saa(lp1002
F523.4825328576828
a(dp1003
g3
I1
sg4
I01
sg5
I0
saa.