(lp0
(lp1
F0.6621299719422027
a(dp2
S'content'
p3
I1
sS'log'
p4
I00
sS'receiver'
p5
I2
saa(lp6
F1.278197157301583
a(dp7
g3
I1
sg4
I00
sg5
I2
saa(lp8
F1.4205694076475925
a(dp9
g3
I59776
sg4
I00
sg5
I2
saa(lp10
F2.2495936761375064
a(dp11
g3
I11222
sg4
I00
sg5
I2
saa(lp12
F2.3882115510409108
a(dp13
g3
I11854
sg4
I00
sg5
I2
saa(lp14
F3.769067013031177
a(dp15
g3
I63
sg4
I00
sg5
I2
saa(lp16
F3.937488237687979
a(dp17
g3
I1764
sg4
I00
sg5
I2
saa(lp18
F6.409133274358094
a(dp19
g3
I12
sg4
I00
sg5
I2
saa(lp20
F8.482601778608023
a(dp21
g3
I6346
sg4
I00
sg5
I2
saa(lp22
F8.801249238279498
a(dp23
g3
I91
sg4
I00
sg5
I2
saa(lp24
F10.53533796442271
a(dp25
g3
I34
sg4
I00
sg5
I2
saa(lp26
F12.500890546969886
a(dp27
g3
I40
sg4
I00
sg5
I2
saa(lp28
F12.636209206779581
a(dp29
g3
I3
sg4
I00
sg5
I2
saa(lp30
F12.866955760195228
a(dp31
g3
I1
sg4
I00
sg5
I2
saa(lp32
F15.140757244157328
a(dp33
g3
I69492
sg4
I00
sg5
I2
saa(lp34
F16.209569292430967
a(dp35
g3
I48179
sg4
I00
sg5
I2
saa(lp36
F17.106015836134006
a(dp37
g3
I250
sg4
I00
sg5
I2
saa(lp38
F17.823286249009573
a(dp39
g3
I21488
sg4
I00
sg5
I2
saa(lp40
F20.79401359880137
a(dp41
g3
I275
sg4
I00
sg5
I2
saa(lp42
F21.06133374517278
a(dp43
g3
I5
sg4
I00
sg5
I2
saa(lp44
F22.175322678361386
a(dp45
g3
I1
sg4
I00
sg5
I2
saa(lp46
F22.780915245099347
a(dp47
g3
I89111
sg4
I00
sg5
I2
saa(lp48
F24.691444067147255
a(dp49
g3
I1
sg4
I00
sg5
I2
saa(lp50
F24.92287092588769
a(dp51
g3
I1
sg4
I00
sg5
I2
saa(lp52
F25.407175015545437
a(dp53
g3
I6
sg4
I00
sg5
I2
saa(lp54
F26.83461816615504
a(dp55
g3
I1
sg4
I00
sg5
I2
saa(lp56
F28.43605895447027
a(dp57
g3
I485
sg4
I00
sg5
I2
saa(lp58
F29.405480834472574
a(dp59
g3
I48556
sg4
I00
sg5
I2
saa(lp60
F29.957133926719724
a(dp61
g3
I314
sg4
I00
sg5
I2
saa(lp62
F31.428304488341478
a(dp63
g3
I622
sg4
I00
sg5
I2
saa(lp64
F32.732554662421194
a(dp65
g3
I1184
sg4
I00
sg5
I2
saa(lp66
F33.01799398253033
a(dp67
g3
I51020
sg4
I00
sg5
I2
saa(lp68
F33.24814629684881
a(dp69
g3
I15
sg4
I00
sg5
I2
saa(lp70
F33.84906169848763
a(dp71
g3
I6
sg4
I00
sg5
I2
saa(lp72
F35.037853267668126
a(dp73
g3
I17625
sg4
I00
sg5
I2
saa(lp74
F35.17516652167521
a(dp75
g3
I23213
sg4
I00
sg5
I2
saa(lp76
F37.32415807055112
a(dp77
g3
I30
sg4
I00
sg5
I2
saa(lp78
F37.9424712011156
a(dp79
g3
I23
sg4
I00
sg5
I2
saa(lp80
F39.132000285821256
a(dp81
g3
I1
sg4
I00
sg5
I2
saa(lp82
F39.862744563690164
a(dp83
g3
I15354
sg4
I00
sg5
I2
saa(lp84
F40.55136987142168
a(dp85
g3
I10966
sg4
I00
sg5
I2
saa(lp86
F40.925591209381786
a(dp87
g3
I190
sg4
I00
sg5
I2
saa(lp88
F41.5204428141441
a(dp89
g3
I11140
sg4
I00
sg5
I2
saa(lp90
F41.96126747265615
a(dp91
g3
I427
sg4
I00
sg5
I2
saa(lp92
F42.642913064143535
a(dp93
g3
I4570
sg4
I00
sg5
I2
saa(lp94
F45.259925855793675
a(dp95
g3
I1
sg4
I00
sg5
I2
saa(lp96
F45.82199452112421
a(dp97
g3
I12
sg4
I00
sg5
I2
saa(lp98
F46.32898755077802
a(dp99
g3
I2
sg4
I00
sg5
I2
saa(lp100
F50.0104610249615
a(dp101
g3
I1294
sg4
I00
sg5
I2
saa(lp102
F50.67634513241651
a(dp103
g3
I7
sg4
I00
sg5
I2
saa(lp104
F50.922030619356725
a(dp105
g3
I3506
sg4
I00
sg5
I2
saa(lp106
F51.03129674746338
a(dp107
g3
I1
sg4
I00
sg5
I2
saa(lp108
F51.45902338294053
a(dp109
g3
I2
sg4
I00
sg5
I2
saa(lp110
F51.50915322954531
a(dp111
g3
I2341
sg4
I00
sg5
I2
saa(lp112
F51.940029037702494
a(dp113
g3
I33995
sg4
I00
sg5
I2
saa(lp114
F53.631154040976256
a(dp115
g3
I1
sg4
I00
sg5
I2
saa(lp116
F57.24613097949138
a(dp117
g3
I515
sg4
I00
sg5
I2
saa(lp118
F57.69642371846835
a(dp119
g3
I3298
sg4
I00
sg5
I2
saa(lp120
F58.68161962796102
a(dp121
g3
I88
sg4
I00
sg5
I2
saa(lp122
F58.692218058747514
a(dp123
g3
I244
sg4
I00
sg5
I2
saa(lp124
F58.723046077090366
a(dp125
g3
I2
sg4
I00
sg5
I2
saa(lp126
F59.248685168182874
a(dp127
g3
I4145
sg4
I00
sg5
I2
saa(lp128
F63.297918522764675
a(dp129
g3
I2298
sg4
I00
sg5
I2
saa(lp130
F63.83676175807137
a(dp131
g3
I1592
sg4
I00
sg5
I2
saa(lp132
F63.94579359582215
a(dp133
g3
I34
sg4
I00
sg5
I2
saa(lp134
F65.36683930417614
a(dp135
g3
I6929
sg4
I00
sg5
I2
saa(lp136
F65.61965054491702
a(dp137
g3
I212
sg4
I00
sg5
I2
saa(lp138
F66.3637648078533
a(dp139
g3
I2
sg4
I00
sg5
I2
saa(lp140
F66.4716444806025
a(dp141
g3
I7099
sg4
I00
sg5
I2
saa(lp142
F69.75589299215652
a(dp143
g3
I1
sg4
I00
sg5
I2
saa(lp144
F71.9514600107532
a(dp145
g3
I1
sg4
I00
sg5
I2
saa(lp146
F72.09787565192455
a(dp147
g3
I43
sg4
I00
sg5
I2
saa(lp148
F74.0334964899161
a(dp149
g3
I1025
sg4
I00
sg5
I2
saa(lp150
F75.22636028884324
a(dp151
g3
I27
sg4
I00
sg5
I2
saa(lp152
F75.63852973095464
a(dp153
g3
I3596
sg4
I00
sg5
I2
saa(lp154
F76.08710577495935
a(dp155
g3
I262
sg4
I00
sg5
I2
saa(lp156
F77.38779258870468
a(dp157
g3
I8
sg4
I00
sg5
I2
saa(lp158
F77.90904484800178
a(dp159
g3
I38
sg4
I00
sg5
I2
saa(lp160
F78.42275974459542
a(dp161
g3
I14
sg4
I00
sg5
I2
saa(lp162
F78.94321166746725
a(dp163
g3
I49
sg4
I00
sg5
I2
saa(lp164
F79.60333844846515
a(dp165
g3
I23
sg4
I00
sg5
I2
saa(lp166
F80.51550195808235
a(dp167
g3
I8146
sg4
I00
sg5
I2
saa(lp168
F81.27860167779852
a(dp169
g3
I1
sg4
I00
sg5
I2
saa(lp170
F83.99561622710512
a(dp171
g3
I324
sg4
I00
sg5
I2
saa(lp172
F85.35827326195889
a(dp173
g3
I21632
sg4
I00
sg5
I2
saa(lp174
F88.8734914723155
a(dp175
g3
I56
sg4
I00
sg5
I2
saa(lp176
F89.5848608788962
a(dp177
g3
I2314
sg4
I00
sg5
I2
saa(lp178
F89.62725847126838
a(dp179
g3
I9185
sg4
I00
sg5
I2
saa(lp180
F89.80464588241489
a(dp181
g3
I67
sg4
I00
sg5
I2
saa(lp182
F90.91198189079506
a(dp183
g3
I5541
sg4
I00
sg5
I2
saa(lp184
F91.79173074195353
a(dp185
g3
I327
sg4
I00
sg5
I2
saa(lp186
F92.06066288877136
a(dp187
g3
I14151
sg4
I00
sg5
I2
saa(lp188
F92.06445445494383
a(dp189
g3
I53152
sg4
I00
sg5
I2
saa(lp190
F93.14058721328367
a(dp191
g3
I26
sg4
I00
sg5
I2
saa(lp192
F93.35686016663438
a(dp193
g3
I95
sg4
I00
sg5
I2
saa(lp194
F95.90559570205893
a(dp195
g3
I701
sg4
I00
sg5
I2
saa(lp196
F96.84436744629892
a(dp197
g3
I154
sg4
I00
sg5
I2
saa(lp198
F97.07518247799328
a(dp199
g3
I1913
sg4
I00
sg5
I2
saa(lp200
F97.14199942526348
a(dp201
g3
I4
sg4
I00
sg5
I2
saa(lp202
F97.39494873477982
a(dp203
g3
I3645
sg4
I00
sg5
I2
saa(lp204
F98.09999237680385
a(dp205
g3
I92
sg4
I01
sg5
I2
saa(lp206
F98.70273338192858
a(dp207
g3
I428
sg4
I01
sg5
I2
saa(lp208
F98.75299668838666
a(dp209
g3
I19984
sg4
I01
sg5
I2
saa(lp210
F98.92422021913177
a(dp211
g3
I4
sg4
I01
sg5
I2
saa(lp212
F99.61900081733145
a(dp213
g3
I16926
sg4
I01
sg5
I2
saa(lp214
F100.26755313620542
a(dp215
g3
I2
sg4
I01
sg5
I2
saa(lp216
F100.77929814886029
a(dp217
g3
I2
sg4
I01
sg5
I2
saa(lp218
F101.13029179781
a(dp219
g3
I7
sg4
I01
sg5
I2
saa(lp220
F102.9557122820701
a(dp221
g3
I81535
sg4
I01
sg5
I2
saa(lp222
F103.18147780950775
a(dp223
g3
I3
sg4
I01
sg5
I2
saa(lp224
F107.16978472536807
a(dp225
g3
I1
sg4
I01
sg5
I2
saa(lp226
F108.78201218352518
a(dp227
g3
I24728
sg4
I01
sg5
I2
saa(lp228
F109.16176113383233
a(dp229
g3
I2998
sg4
I01
sg5
I2
saa(lp230
F109.84867738193226
a(dp231
g3
I915
sg4
I01
sg5
I2
saa(lp232
F111.59932524689954
a(dp233
g3
I55
sg4
I01
sg5
I2
saa(lp234
F112.29914728552836
a(dp235
g3
I1
sg4
I01
sg5
I2
saa(lp236
F112.32485415216988
a(dp237
g3
I4228
sg4
I01
sg5
I2
saa(lp238
F112.4901753478865
a(dp239
g3
I48160
sg4
I01
sg5
I2
saa(lp240
F113.45653126242077
a(dp241
g3
I5998
sg4
I01
sg5
I2
saa(lp242
F115.46704933559683
a(dp243
g3
I763
sg4
I01
sg5
I2
saa(lp244
F118.02300757264571
a(dp245
g3
I17962
sg4
I01
sg5
I2
saa(lp246
F118.57098655588864
a(dp247
g3
I24131
sg4
I01
sg5
I2
saa(lp248
F119.20631334829083
a(dp249
g3
I84
sg4
I01
sg5
I2
saa(lp250
F119.96147076464008
a(dp251
g3
I3
sg4
I01
sg5
I2
saa(lp252
F121.45509872701896
a(dp253
g3
I36
sg4
I01
sg5
I2
saa(lp254
F121.97043440419154
a(dp255
g3
I8
sg4
I01
sg5
I2
saa(lp256
F122.93655092708924
a(dp257
g3
I3
sg4
I01
sg5
I2
saa(lp258
F123.53859059645914
a(dp259
g3
I43
sg4
I01
sg5
I2
saa(lp260
F123.83369109670777
a(dp261
g3
I466
sg4
I01
sg5
I2
saa(lp262
F124.50785797481397
a(dp263
g3
I1
sg4
I01
sg5
I2
saa(lp264
F128.30628005472178
a(dp265
g3
I39368
sg4
I01
sg5
I2
saa(lp266
F129.67754429728382
a(dp267
g3
I63
sg4
I01
sg5
I2
saa(lp268
F129.9204781745992
a(dp269
g3
I1
sg4
I01
sg5
I2
saa(lp270
F130.47407838366865
a(dp271
g3
I40755
sg4
I01
sg5
I2
saa(lp272
F130.58511472114597
a(dp273
g3
I2796
sg4
I01
sg5
I2
saa(lp274
F130.79275898507657
a(dp275
g3
I5303
sg4
I01
sg5
I2
saa(lp276
F131.20177487891735
a(dp277
g3
I20
sg4
I01
sg5
I2
saa(lp278
F132.625261621926
a(dp279
g3
I74406
sg4
I01
sg5
I2
saa(lp280
F133.0918932491982
a(dp281
g3
I62584
sg4
I01
sg5
I2
saa(lp282
F135.42576230709275
a(dp283
g3
I2
sg4
I01
sg5
I2
saa(lp284
F137.13847321447622
a(dp285
g3
I106
sg4
I01
sg5
I2
saa(lp286
F137.66007718947006
a(dp287
g3
I26161
sg4
I01
sg5
I2
saa(lp288
F138.34852443501939
a(dp289
g3
I2
sg4
I01
sg5
I2
saa(lp290
F140.14279659697362
a(dp291
g3
I362
sg4
I01
sg5
I2
saa(lp292
F140.29253415507162
a(dp293
g3
I2460
sg4
I01
sg5
I2
saa(lp294
F140.3320196002742
a(dp295
g3
I1038
sg4
I01
sg5
I2
saa(lp296
F140.57632811055973
a(dp297
g3
I991
sg4
I01
sg5
I2
saa(lp298
F141.8564464512739
a(dp299
g3
I73
sg4
I01
sg5
I2
saa(lp300
F143.2285914090882
a(dp301
g3
I20834
sg4
I01
sg5
I2
saa(lp302
F144.395242706282
a(dp303
g3
I72517
sg4
I01
sg5
I2
saa(lp304
F146.45685157663289
a(dp305
g3
I6401
sg4
I01
sg5
I2
saa(lp306
F147.73307396770213
a(dp307
g3
I4
sg4
I01
sg5
I2
saa(lp308
F147.7823536872275
a(dp309
g3
I6
sg4
I01
sg5
I2
saa(lp310
F149.03866616500548
a(dp311
g3
I161
sg4
I01
sg5
I2
saa(lp312
F149.0496704449706
a(dp313
g3
I23829
sg4
I01
sg5
I2
saa(lp314
F149.31773777504634
a(dp315
g3
I18875
sg4
I01
sg5
I2
saa(lp316
F149.51255836585048
a(dp317
g3
I129
sg4
I01
sg5
I2
saa(lp318
F149.9807547679231
a(dp319
g3
I11
sg4
I01
sg5
I2
saa(lp320
F150.90686525441743
a(dp321
g3
I1293
sg4
I01
sg5
I2
saa(lp322
F152.63470204797554
a(dp323
g3
I3
sg4
I01
sg5
I2
saa(lp324
F154.06511936926046
a(dp325
g3
I5623
sg4
I01
sg5
I2
saa(lp326
F155.35721851268727
a(dp327
g3
I140
sg4
I01
sg5
I2
saa(lp328
F156.15959016910824
a(dp329
g3
I14310
sg4
I01
sg5
I2
saa(lp330
F157.21340856317502
a(dp331
g3
I34524
sg4
I01
sg5
I2
saa(lp332
F157.59322250836203
a(dp333
g3
I39
sg4
I01
sg5
I2
saa(lp334
F158.48607803776153
a(dp335
g3
I997
sg4
I01
sg5
I2
saa(lp336
F159.2305804872344
a(dp337
g3
I45
sg4
I01
sg5
I2
saa(lp338
F159.72617793719206
a(dp339
g3
I2
sg4
I01
sg5
I2
saa(lp340
F160.0681551695833
a(dp341
g3
I36980
sg4
I01
sg5
I2
saa(lp342
F160.8219112825995
a(dp343
g3
I2876
sg4
I01
sg5
I2
saa(lp344
F161.68006080135828
a(dp345
g3
I14908
sg4
I01
sg5
I2
saa(lp346
F161.68242039122907
a(dp347
g3
I12451
sg4
I01
sg5
I2
saa(lp348
F162.81110907943443
a(dp349
g3
I5
sg4
I01
sg5
I2
saa(lp350
F164.711387687485
a(dp351
g3
I27228
sg4
I01
sg5
I2
saa(lp352
F169.0508838684599
a(dp353
g3
I1
sg4
I01
sg5
I2
saa(lp354
F170.11503681887237
a(dp355
g3
I4
sg4
I01
sg5
I2
saa(lp356
F170.96935365617404
a(dp357
g3
I16
sg4
I01
sg5
I2
saa(lp358
F172.47683230011654
a(dp359
g3
I1071
sg4
I01
sg5
I2
saa(lp360
F175.5275577523492
a(dp361
g3
I52154
sg4
I01
sg5
I2
saa(lp362
F176.58958127553387
a(dp363
g3
I7
sg4
I01
sg5
I2
saa(lp364
F177.71014964299957
a(dp365
g3
I1
sg4
I01
sg5
I2
saa(lp366
F180.22074806998222
a(dp367
g3
I284
sg4
I01
sg5
I2
saa(lp368
F184.61174037180254
a(dp369
g3
I9216
sg4
I01
sg5
I2
saa(lp370
F185.22655704337956
a(dp371
g3
I1702
sg4
I01
sg5
I2
saa(lp372
F185.27191016671296
a(dp373
g3
I3482
sg4
I01
sg5
I2
saa(lp374
F187.07675831402963
a(dp375
g3
I38
sg4
I01
sg5
I2
saa(lp376
F187.3103940332079
a(dp377
g3
I456
sg4
I01
sg5
I2
saa(lp378
F188.15730235771267
a(dp379
g3
I902
sg4
I01
sg5
I2
saa(lp380
F189.38339118471407
a(dp381
g3
I30
sg4
I01
sg5
I2
saa(lp382
F189.69293926843537
a(dp383
g3
I1
sg4
I01
sg5
I2
saa(lp384
F190.92964052305194
a(dp385
g3
I6
sg4
I01
sg5
I2
saa(lp386
F190.97907491834468
a(dp387
g3
I138
sg4
I01
sg5
I2
saa(lp388
F191.52941494633578
a(dp389
g3
I17743
sg4
I01
sg5
I2
saa(lp390
F193.98318058645722
a(dp391
g3
I45914
sg4
I01
sg5
I2
saa(lp392
F195.30327584601878
a(dp393
g3
I901
sg4
I01
sg5
I2
saa(lp394
F196.22940092728703
a(dp395
g3
I43
sg4
I01
sg5
I2
saa(lp396
F196.80542934339582
a(dp397
g3
I53
sg4
I01
sg5
I2
saa(lp398
F197.58946525358127
a(dp399
g3
I3
sg4
I01
sg5
I2
saa(lp400
F197.6845593192308
a(dp401
g3
I6
sg4
I01
sg5
I2
saa(lp402
F198.54065655434948
a(dp403
g3
I4
sg4
I01
sg5
I2
saa(lp404
F198.7134247500632
a(dp405
g3
I1068
sg4
I01
sg5
I2
saa(lp406
F199.10231386335124
a(dp407
g3
I82717
sg4
I01
sg5
I2
saa(lp408
F200.53220527367176
a(dp409
g3
I6007
sg4
I01
sg5
I2
saa(lp410
F202.16165041252782
a(dp411
g3
I631
sg4
I01
sg5
I2
saa(lp412
F204.01893156968043
a(dp413
g3
I2150
sg4
I01
sg5
I2
saa(lp414
F208.27513180053845
a(dp415
g3
I13
sg4
I01
sg5
I2
saa(lp416
F209.1546621447109
a(dp417
g3
I670
sg4
I01
sg5
I2
saa(lp418
F209.87674975813587
a(dp419
g3
I79
sg4
I01
sg5
I2
saa(lp420
F210.66337680585406
a(dp421
g3
I481
sg4
I01
sg5
I2
saa(lp422
F211.74672586395243
a(dp423
g3
I31823
sg4
I01
sg5
I2
saa(lp424
F212.57460978129853
a(dp425
g3
I33305
sg4
I01
sg5
I2
saa(lp426
F213.59536623680364
a(dp427
g3
I1641
sg4
I01
sg5
I2
saa(lp428
F214.78605439831136
a(dp429
g3
I11
sg4
I01
sg5
I2
saa(lp430
F216.15295758926763
a(dp431
g3
I66436
sg4
I01
sg5
I2
saa(lp432
F216.45971695328697
a(dp433
g3
I101
sg4
I01
sg5
I2
saa(lp434
F217.4468796571178
a(dp435
g3
I3100
sg4
I01
sg5
I2
saa(lp436
F220.59283258416806
a(dp437
g3
I21353
sg4
I01
sg5
I2
saa(lp438
F222.421013301276
a(dp439
g3
I2662
sg4
I01
sg5
I2
saa(lp440
F223.52744317737123
a(dp441
g3
I7
sg4
I01
sg5
I2
saa(lp442
F223.85914999576244
a(dp443
g3
I20887
sg4
I01
sg5
I2
saa(lp444
F225.54496940446802
a(dp445
g3
I151
sg4
I01
sg5
I2
saa(lp446
F226.07971200555303
a(dp447
g3
I34
sg4
I01
sg5
I2
saa(lp448
F227.2459192617173
a(dp449
g3
I38
sg4
I01
sg5
I2
saa(lp450
F229.2000239231617
a(dp451
g3
I164
sg4
I01
sg5
I2
saa(lp452
F230.91443437222017
a(dp453
g3
I65119
sg4
I01
sg5
I2
saa(lp454
F231.1468988858232
a(dp455
g3
I60
sg4
I01
sg5
I2
saa(lp456
F231.8570075044633
a(dp457
g3
I6659
sg4
I01
sg5
I2
saa(lp458
F232.1668651570322
a(dp459
g3
I22489
sg4
I01
sg5
I2
saa(lp460
F232.44895125084963
a(dp461
g3
I47086
sg4
I01
sg5
I2
saa(lp462
F235.74786730757944
a(dp463
g3
I1197
sg4
I01
sg5
I2
saa(lp464
F235.9923100813046
a(dp465
g3
I22800
sg4
I01
sg5
I2
saa(lp466
F238.74701833630235
a(dp467
g3
I3
sg4
I01
sg5
I2
saa(lp468
F242.10130120173756
a(dp469
g3
I33726
sg4
I01
sg5
I2
saa(lp470
F242.37782510886373
a(dp471
g3
I414
sg4
I01
sg5
I2
saa(lp472
F242.74566439334234
a(dp473
g3
I103
sg4
I01
sg5
I2
saa(lp474
F243.47899183079855
a(dp475
g3
I71
sg4
I01
sg5
I2
saa(lp476
F244.27080002381825
a(dp477
g3
I657
sg4
I01
sg5
I2
saa(lp478
F244.8321159434658
a(dp479
g3
I9790
sg4
I01
sg5
I2
saa(lp480
F247.34511948847597
a(dp481
g3
I19
sg4
I01
sg5
I2
saa(lp482
F247.48210737453215
a(dp483
g3
I10
sg4
I01
sg5
I2
saa(lp484
F249.25028736044288
a(dp485
g3
I1
sg4
I01
sg5
I2
saa(lp486
F249.69325133621922
a(dp487
g3
I112
sg4
I01
sg5
I2
saa(lp488
F249.71246605611466
a(dp489
g3
I2
sg4
I01
sg5
I2
saa(lp490
F250.2105423909277
a(dp491
g3
I56
sg4
I01
sg5
I2
saa(lp492
F250.89866120766524
a(dp493
g3
I1
sg4
I01
sg5
I2
saa(lp494
F251.53805953012485
a(dp495
g3
I32
sg4
I01
sg5
I2
saa(lp496
F252.0542127574369
a(dp497
g3
I2
sg4
I01
sg5
I2
saa(lp498
F252.59402599466358
a(dp499
g3
I9
sg4
I01
sg5
I2
saa(lp500
F252.80701734870482
a(dp501
g3
I5
sg4
I01
sg5
I2
saa(lp502
F254.0405254446603
a(dp503
g3
I27
sg4
I01
sg5
I2
saa(lp504
F255.41712398157986
a(dp505
g3
I16
sg4
I01
sg5
I2
saa(lp506
F255.71174027441063
a(dp507
g3
I330
sg4
I01
sg5
I2
saa(lp508
F255.74211202310644
a(dp509
g3
I6617
sg4
I01
sg5
I2
saa(lp510
F255.75268494653884
a(dp511
g3
I268
sg4
I01
sg5
I2
saa(lp512
F256.36852018362686
a(dp513
g3
I29
sg4
I01
sg5
I2
saa(lp514
F256.65059045612765
a(dp515
g3
I1328
sg4
I01
sg5
I2
saa(lp516
F257.76160589073004
a(dp517
g3
I16471
sg4
I01
sg5
I2
saa(lp518
F258.7584930177258
a(dp519
g3
I13121
sg4
I01
sg5
I2
saa(lp520
F259.870227035683
a(dp521
g3
I26
sg4
I01
sg5
I2
saa(lp522
F261.5432579841883
a(dp523
g3
I23
sg4
I01
sg5
I2
saa(lp524
F262.51161317846476
a(dp525
g3
I219
sg4
I01
sg5
I2
saa(lp526
F265.3058271179224
a(dp527
g3
I2060
sg4
I01
sg5
I2
saa(lp528
F267.23404365696354
a(dp529
g3
I4434
sg4
I01
sg5
I2
saa(lp530
F267.6337950274729
a(dp531
g3
I1
sg4
I01
sg5
I2
saa(lp532
F272.50667789802304
a(dp533
g3
I662
sg4
I01
sg5
I2
saa(lp534
F272.68365348295123
a(dp535
g3
I19185
sg4
I01
sg5
I2
saa(lp536
F272.8970019348248
a(dp537
g3
I4
sg4
I01
sg5
I2
saa(lp538
F273.07057127963657
a(dp539
g3
I2578
sg4
I01
sg5
I2
saa(lp540
F274.6295043571285
a(dp541
g3
I5318
sg4
I01
sg5
I2
saa(lp542
F276.96576152169234
a(dp543
g3
I1
sg4
I01
sg5
I2
saa(lp544
F279.14164973046763
a(dp545
g3
I1069
sg4
I01
sg5
I2
saa(lp546
F279.9990414983534
a(dp547
g3
I496
sg4
I01
sg5
I2
saa(lp548
F281.8000821853336
a(dp549
g3
I15273
sg4
I01
sg5
I2
saa(lp550
F283.7347704038506
a(dp551
g3
I205
sg4
I01
sg5
I2
saa(lp552
F283.8156797655766
a(dp553
g3
I2
sg4
I01
sg5
I2
saa(lp554
F283.88966515397766
a(dp555
g3
I1781
sg4
I01
sg5
I2
saa(lp556
F284.8312948337006
a(dp557
g3
I17
sg4
I01
sg5
I2
saa(lp558
F285.0993165987881
a(dp559
g3
I1269
sg4
I01
sg5
I2
saa(lp560
F285.6913743970678
a(dp561
g3
I29
sg4
I01
sg5
I2
saa(lp562
F285.8998098065834
a(dp563
g3
I1009
sg4
I01
sg5
I2
saa(lp564
F285.98636330324206
a(dp565
g3
I2
sg4
I01
sg5
I2
saa(lp566
F287.4278500122462
a(dp567
g3
I1
sg4
I01
sg5
I2
saa(lp568
F288.33368974534415
a(dp569
g3
I55755
sg4
I01
sg5
I2
saa(lp570
F288.35723336654456
a(dp571
g3
I5
sg4
I01
sg5
I2
saa(lp572
F288.4451974566948
a(dp573
g3
I3343
sg4
I01
sg5
I2
saa(lp574
F289.0714035028682
a(dp575
g3
I8
sg4
I01
sg5
I2
saa(lp576
F289.71851514535
a(dp577
g3
I502
sg4
I01
sg5
I2
saa(lp578
F290.11635655566494
a(dp579
g3
I2146
sg4
I01
sg5
I2
saa(lp580
F290.15759959047017
a(dp581
g3
I34912
sg4
I01
sg5
I2
saa(lp582
F292.4013765942564
a(dp583
g3
I1687
sg4
I01
sg5
I2
saa(lp584
F293.30729398165505
a(dp585
g3
I914
sg4
I01
sg5
I2
saa(lp586
F294.27032102802
a(dp587
g3
I1168
sg4
I01
sg5
I2
saa(lp588
F294.73416074441633
a(dp589
g3
I35
sg4
I01
sg5
I2
saa(lp590
F296.5144978439424
a(dp591
g3
I1
sg4
I01
sg5
I2
saa(lp592
F296.90788124247337
a(dp593
g3
I74219
sg4
I01
sg5
I2
saa(lp594
F299.27480510720005
a(dp595
g3
I187
sg4
I01
sg5
I2
saa(lp596
F299.71778851214435
a(dp597
g3
I31
sg4
I01
sg5
I2
saa(lp598
F300.07869086418714
a(dp599
g3
I402
sg4
I01
sg5
I2
saa(lp600
F301.49254300306205
a(dp601
g3
I10
sg4
I01
sg5
I2
saa(lp602
F303.13561368069765
a(dp603
g3
I43
sg4
I01
sg5
I2
saa(lp604
F303.7159196792622
a(dp605
g3
I56557
sg4
I01
sg5
I2
saa(lp606
F305.8892381444518
a(dp607
g3
I7095
sg4
I01
sg5
I2
saa(lp608
F306.6941791521661
a(dp609
g3
I107
sg4
I01
sg5
I2
saa(lp610
F309.16749712466725
a(dp611
g3
I1
sg4
I01
sg5
I2
saa(lp612
F309.4853217210862
a(dp613
g3
I90591
sg4
I01
sg5
I2
saa(lp614
F309.6853212347866
a(dp615
g3
I13220
sg4
I01
sg5
I2
saa(lp616
F311.7730465227936
a(dp617
g3
I14230
sg4
I01
sg5
I2
saa(lp618
F311.8555663089676
a(dp619
g3
I2
sg4
I01
sg5
I2
saa(lp620
F313.6871060363487
a(dp621
g3
I1193
sg4
I01
sg5
I2
saa(lp622
F314.3286952173817
a(dp623
g3
I8
sg4
I01
sg5
I2
saa(lp624
F314.8963631625594
a(dp625
g3
I4
sg4
I01
sg5
I2
saa(lp626
F315.74679097919415
a(dp627
g3
I911
sg4
I01
sg5
I2
saa(lp628
F317.0258909540415
a(dp629
g3
I917
sg4
I01
sg5
I2
saa(lp630
F318.5424905174194
a(dp631
g3
I3972
sg4
I01
sg5
I2
saa(lp632
F319.1067811359268
a(dp633
g3
I579
sg4
I01
sg5
I2
saa(lp634
F319.18179174270875
a(dp635
g3
I5737
sg4
I01
sg5
I2
saa(lp636
F319.4847304747305
a(dp637
g3
I305
sg4
I01
sg5
I2
saa(lp638
F319.7029896683297
a(dp639
g3
I31
sg4
I01
sg5
I2
saa(lp640
F322.4867346459987
a(dp641
g3
I42
sg4
I01
sg5
I2
saa(lp642
F323.10063552616856
a(dp643
g3
I5021
sg4
I01
sg5
I2
saa(lp644
F324.0052993449928
a(dp645
g3
I92937
sg4
I01
sg5
I2
saa(lp646
F325.37440947794073
a(dp647
g3
I4
sg4
I01
sg5
I2
saa(lp648
F325.6151505549517
a(dp649
g3
I314
sg4
I01
sg5
I2
saa(lp650
F325.8846772247884
a(dp651
g3
I1
sg4
I01
sg5
I2
saa(lp652
F326.1514857437145
a(dp653
g3
I2
sg4
I01
sg5
I2
saa(lp654
F326.2071566913531
a(dp655
g3
I126
sg4
I01
sg5
I2
saa(lp656
F327.275412661593
a(dp657
g3
I2
sg4
I01
sg5
I2
saa(lp658
F328.05204351333333
a(dp659
g3
I3
sg4
I01
sg5
I2
saa(lp660
F330.30932426552255
a(dp661
g3
I27500
sg4
I01
sg5
I2
saa(lp662
F333.13273387214184
a(dp663
g3
I26
sg4
I01
sg5
I2
saa(lp664
F334.8189553446067
a(dp665
g3
I79
sg4
I01
sg5
I2
saa(lp666
F335.6625942133058
a(dp667
g3
I1210
sg4
I01
sg5
I2
saa(lp668
F336.2914047678098
a(dp669
g3
I41
sg4
I01
sg5
I2
saa(lp670
F336.51283419129095
a(dp671
g3
I1251
sg4
I01
sg5
I2
saa(lp672
F336.9378160828179
a(dp673
g3
I1
sg4
I01
sg5
I2
saa(lp674
F337.117672844568
a(dp675
g3
I1536
sg4
I01
sg5
I2
saa(lp676
F337.21943267378936
a(dp677
g3
I1
sg4
I01
sg5
I2
saa(lp678
F337.37670370749333
a(dp679
g3
I1
sg4
I01
sg5
I2
saa(lp680
F338.961495028149
a(dp681
g3
I5227
sg4
I01
sg5
I2
saa(lp682
F339.4271028632503
a(dp683
g3
I95
sg4
I01
sg5
I2
saa(lp684
F339.61936593237476
a(dp685
g3
I1
sg4
I01
sg5
I2
saa(lp686
F342.5636965201214
a(dp687
g3
I89
sg4
I01
sg5
I2
saa(lp688
F343.18492585087813
a(dp689
g3
I2029
sg4
I01
sg5
I2
saa(lp690
F343.29096078342906
a(dp691
g3
I159
sg4
I01
sg5
I2
saa(lp692
F344.8243046597873
a(dp693
g3
I30267
sg4
I01
sg5
I2
saa(lp694
F347.90396678302693
a(dp695
g3
I6
sg4
I01
sg5
I2
saa(lp696
F347.92147402960285
a(dp697
g3
I29
sg4
I01
sg5
I2
saa(lp698
F348.13495010426556
a(dp699
g3
I1
sg4
I01
sg5
I2
saa(lp700
F348.56161907460984
a(dp701
g3
I12526
sg4
I01
sg5
I2
saa(lp702
F348.8390060044494
a(dp703
g3
I212
sg4
I01
sg5
I2
saa(lp704
F348.9045042564668
a(dp705
g3
I823
sg4
I01
sg5
I2
saa(lp706
F349.24609207995474
a(dp707
g3
I1
sg4
I01
sg5
I2
saa(lp708
F349.71854777676174
a(dp709
g3
I12
sg4
I01
sg5
I2
saa(lp710
F350.03582404765484
a(dp711
g3
I16365
sg4
I01
sg5
I2
saa(lp712
F351.1715681582721
a(dp713
g3
I61944
sg4
I01
sg5
I2
saa(lp714
F351.9922808080912
a(dp715
g3
I15
sg4
I01
sg5
I2
saa(lp716
F352.4566829938175
a(dp717
g3
I1392
sg4
I01
sg5
I2
saa(lp718
F353.322139683337
a(dp719
g3
I15139
sg4
I01
sg5
I2
saa(lp720
F354.0705312499249
a(dp721
g3
I28833
sg4
I01
sg5
I2
saa(lp722
F355.63877238186933
a(dp723
g3
I240
sg4
I01
sg5
I2
saa(lp724
F357.6594337169619
a(dp725
g3
I8003
sg4
I01
sg5
I2
saa(lp726
F358.6658918222547
a(dp727
g3
I19954
sg4
I01
sg5
I2
saa(lp728
F359.09786574818713
a(dp729
g3
I3760
sg4
I01
sg5
I2
saa(lp730
F360.21078640370473
a(dp731
g3
I2
sg4
I01
sg5
I2
saa(lp732
F360.37812714642826
a(dp733
g3
I48
sg4
I01
sg5
I2
saa(lp734
F360.9010689839539
a(dp735
g3
I48065
sg4
I01
sg5
I2
saa(lp736
F362.05953516626727
a(dp737
g3
I8804
sg4
I01
sg5
I2
saa(lp738
F362.6050336159903
a(dp739
g3
I2
sg4
I01
sg5
I2
saa(lp740
F362.72240946101846
a(dp741
g3
I707
sg4
I01
sg5
I2
saa(lp742
F362.8443636421029
a(dp743
g3
I5
sg4
I01
sg5
I2
saa(lp744
F363.17106718132163
a(dp745
g3
I45
sg4
I01
sg5
I2
saa(lp746
F363.7321639609568
a(dp747
g3
I95693
sg4
I01
sg5
I2
saa(lp748
F364.4592305181207
a(dp749
g3
I9
sg4
I01
sg5
I2
saa(lp750
F366.35539271986903
a(dp751
g3
I2481
sg4
I01
sg5
I2
saa(lp752
F367.5849521891049
a(dp753
g3
I7120
sg4
I01
sg5
I2
saa(lp754
F368.48887995955533
a(dp755
g3
I1831
sg4
I01
sg5
I2
saa(lp756
F368.50591658464924
a(dp757
g3
I6
sg4
I01
sg5
I2
saa(lp758
F369.25727715270835
a(dp759
g3
I2
sg4
I01
sg5
I2
saa(lp760
F369.4334020100019
a(dp761
g3
I6
sg4
I01
sg5
I2
saa(lp762
F369.9039311589335
a(dp763
g3
I117
sg4
I01
sg5
I2
saa(lp764
F370.0722050373078
a(dp765
g3
I2
sg4
I01
sg5
I2
saa(lp766
F371.7990921842463
a(dp767
g3
I23
sg4
I01
sg5
I2
saa(lp768
F371.88414119296255
a(dp769
g3
I45147
sg4
I01
sg5
I2
saa(lp770
F372.3085765808628
a(dp771
g3
I159
sg4
I01
sg5
I2
saa(lp772
F372.52376663897
a(dp773
g3
I1180
sg4
I01
sg5
I2
saa(lp774
F372.5266032026254
a(dp775
g3
I3
sg4
I01
sg5
I2
saa(lp776
F375.620698918536
a(dp777
g3
I907
sg4
I01
sg5
I2
saa(lp778
F376.04325034698155
a(dp779
g3
I2282
sg4
I01
sg5
I2
saa(lp780
F377.0425610654497
a(dp781
g3
I23465
sg4
I01
sg5
I2
saa(lp782
F377.85592812829333
a(dp783
g3
I2
sg4
I01
sg5
I2
saa(lp784
F378.2413731299191
a(dp785
g3
I1
sg4
I01
sg5
I2
saa(lp786
F380.55054760125597
a(dp787
g3
I368
sg4
I01
sg5
I2
saa(lp788
F382.3704239820098
a(dp789
g3
I42
sg4
I01
sg5
I2
saa(lp790
F383.1963516158374
a(dp791
g3
I2
sg4
I01
sg5
I2
saa(lp792
F387.05296281268687
a(dp793
g3
I23
sg4
I01
sg5
I2
saa(lp794
F387.433504440511
a(dp795
g3
I43160
sg4
I01
sg5
I2
saa(lp796
F389.04653107471984
a(dp797
g3
I16
sg4
I01
sg5
I2
saa(lp798
F389.1544884672332
a(dp799
g3
I1333
sg4
I01
sg5
I2
saa(lp800
F389.4150654346569
a(dp801
g3
I246
sg4
I01
sg5
I2
saa(lp802
F390.51404706887627
a(dp803
g3
I20858
sg4
I01
sg5
I2
saa(lp804
F391.29249876742745
a(dp805
g3
I2
sg4
I01
sg5
I2
saa(lp806
F391.6107539053193
a(dp807
g3
I3167
sg4
I01
sg5
I2
saa(lp808
F395.2434307553415
a(dp809
g3
I38
sg4
I01
sg5
I2
saa(lp810
F397.2334458747523
a(dp811
g3
I124
sg4
I01
sg5
I2
saa(lp812
F397.560412125418
a(dp813
g3
I17
sg4
I01
sg5
I2
saa(lp814
F398.89406592539854
a(dp815
g3
I65606
sg4
I01
sg5
I2
saa(lp816
F399.33472270210746
a(dp817
g3
I1633
sg4
I01
sg5
I2
saa(lp818
F399.44025331630195
a(dp819
g3
I165
sg4
I01
sg5
I2
saa(lp820
F400.07669036694375
a(dp821
g3
I6
sg4
I01
sg5
I2
saa(lp822
F400.945149999563
a(dp823
g3
I13034
sg4
I01
sg5
I2
saa(lp824
F401.9453976680009
a(dp825
g3
I11
sg4
I01
sg5
I2
saa(lp826
F402.2312914415397
a(dp827
g3
I13643
sg4
I01
sg5
I2
saa(lp828
F402.91145437101676
a(dp829
g3
I79192
sg4
I01
sg5
I2
saa(lp830
F404.3326284337092
a(dp831
g3
I74
sg4
I01
sg5
I2
saa(lp832
F404.4506728113293
a(dp833
g3
I4483
sg4
I01
sg5
I2
saa(lp834
F405.356073585691
a(dp835
g3
I1
sg4
I01
sg5
I2
saa(lp836
F405.41437174484173
a(dp837
g3
I874
sg4
I01
sg5
I2
saa(lp838
F405.4527952572548
a(dp839
g3
I1
sg4
I01
sg5
I2
saa(lp840
F407.39469574459514
a(dp841
g3
I17295
sg4
I01
sg5
I2
saa(lp842
F407.5105054735966
a(dp843
g3
I87637
sg4
I01
sg5
I2
saa(lp844
F411.13527555307974
a(dp845
g3
I79
sg4
I01
sg5
I2
saa(lp846
F411.7339474699922
a(dp847
g3
I20
sg4
I01
sg5
I2
saa(lp848
F412.14015830699867
a(dp849
g3
I1454
sg4
I01
sg5
I2
saa(lp850
F412.204351988324
a(dp851
g3
I40
sg4
I01
sg5
I2
saa(lp852
F412.2669062160088
a(dp853
g3
I168
sg4
I01
sg5
I2
saa(lp854
F413.3951859708602
a(dp855
g3
I16475
sg4
I01
sg5
I2
saa(lp856
F414.49425077906676
a(dp857
g3
I7
sg4
I01
sg5
I2
saa(lp858
F416.55845084175763
a(dp859
g3
I46
sg4
I01
sg5
I2
saa(lp860
F417.45346815320875
a(dp861
g3
I18679
sg4
I01
sg5
I2
saa(lp862
F419.2129245434281
a(dp863
g3
I18
sg4
I01
sg5
I2
saa(lp864
F420.3754364941428
a(dp865
g3
I10701
sg4
I01
sg5
I2
saa(lp866
F420.9740017863811
a(dp867
g3
I1584
sg4
I01
sg5
I2
saa(lp868
F421.6950611627954
a(dp869
g3
I30335
sg4
I01
sg5
I2
saa(lp870
F422.4420737802134
a(dp871
g3
I4149
sg4
I01
sg5
I2
saa(lp872
F424.1438304743443
a(dp873
g3
I3438
sg4
I01
sg5
I2
saa(lp874
F424.8205949640487
a(dp875
g3
I5705
sg4
I01
sg5
I2
saa(lp876
F425.91917675082914
a(dp877
g3
I1
sg4
I01
sg5
I2
saa(lp878
F427.67307054419825
a(dp879
g3
I27334
sg4
I01
sg5
I2
saa(lp880
F429.0345874067443
a(dp881
g3
I3
sg4
I01
sg5
I2
saa(lp882
F429.67538230195
a(dp883
g3
I1
sg4
I01
sg5
I2
saa(lp884
F433.35966614313173
a(dp885
g3
I6
sg4
I01
sg5
I2
saa(lp886
F435.54495719850195
a(dp887
g3
I59
sg4
I01
sg5
I2
saa(lp888
F437.4870365191064
a(dp889
g3
I85973
sg4
I01
sg5
I2
saa(lp890
F437.602719327638
a(dp891
g3
I1
sg4
I01
sg5
I2
saa(lp892
F438.72996279951747
a(dp893
g3
I297
sg4
I01
sg5
I2
saa(lp894
F439.20254624925724
a(dp895
g3
I6
sg4
I01
sg5
I2
saa(lp896
F439.5003077768287
a(dp897
g3
I49287
sg4
I01
sg5
I2
saa(lp898
F439.9088828744011
a(dp899
g3
I3114
sg4
I01
sg5
I2
saa(lp900
F440.4895236115122
a(dp901
g3
I4
sg4
I01
sg5
I2
saa(lp902
F441.1041245735118
a(dp903
g3
I3
sg4
I01
sg5
I2
saa(lp904
F441.6010649707844
a(dp905
g3
I6
sg4
I01
sg5
I2
saa(lp906
F441.8621821078376
a(dp907
g3
I7
sg4
I01
sg5
I2
saa(lp908
F442.8309521625145
a(dp909
g3
I1
sg4
I01
sg5
I2
saa(lp910
F443.27530062676504
a(dp911
g3
I243
sg4
I01
sg5
I2
saa(lp912
F444.75046056812766
a(dp913
g3
I456
sg4
I01
sg5
I2
saa(lp914
F446.3558499018505
a(dp915
g3
I4492
sg4
I01
sg5
I2
saa(lp916
F447.40836656648435
a(dp917
g3
I355
sg4
I01
sg5
I2
saa(lp918
F449.7904962516882
a(dp919
g3
I3408
sg4
I01
sg5
I2
saa(lp920
F449.85157943171384
a(dp921
g3
I5038
sg4
I01
sg5
I2
saa(lp922
F450.66994661926617
a(dp923
g3
I24333
sg4
I01
sg5
I2
saa(lp924
F452.48137782011537
a(dp925
g3
I75
sg4
I01
sg5
I2
saa(lp926
F454.40779654196996
a(dp927
g3
I457
sg4
I01
sg5
I2
saa(lp928
F454.48307437709377
a(dp929
g3
I3
sg4
I01
sg5
I2
saa(lp930
F456.7252025688638
a(dp931
g3
I2
sg4
I01
sg5
I2
saa(lp932
F456.97050547911954
a(dp933
g3
I29051
sg4
I01
sg5
I2
saa(lp934
F457.26796934576873
a(dp935
g3
I192
sg4
I01
sg5
I2
saa(lp936
F458.2010918576021
a(dp937
g3
I101
sg4
I01
sg5
I2
saa(lp938
F459.9041777429955
a(dp939
g3
I27971
sg4
I01
sg5
I2
saa(lp940
F461.3744672234215
a(dp941
g3
I2747
sg4
I01
sg5
I2
saa(lp942
F461.77378122420777
a(dp943
g3
I21
sg4
I01
sg5
I2
saa(lp944
F462.13083292434874
a(dp945
g3
I12
sg4
I01
sg5
I2
saa(lp946
F464.0805800254527
a(dp947
g3
I6
sg4
I01
sg5
I2
saa(lp948
F464.3600261083104
a(dp949
g3
I399
sg4
I01
sg5
I2
saa(lp950
F465.16106008949885
a(dp951
g3
I1
sg4
I01
sg5
I2
saa(lp952
F466.57184970861096
a(dp953
g3
I6199
sg4
I01
sg5
I2
saa(lp954
F466.8507226667986
a(dp955
g3
I999
sg4
I01
sg5
I2
saa(lp956
F467.5707709516206
a(dp957
g3
I2
sg4
I01
sg5
I2
saa(lp958
F467.6147817105896
a(dp959
g3
I403
sg4
I01
sg5
I2
saa(lp960
F467.85932149367227
a(dp961
g3
I30
sg4
I01
sg5
I2
saa(lp962
F468.3871375900519
a(dp963
g3
I23864
sg4
I01
sg5
I2
saa(lp964
F470.09794522960186
a(dp965
g3
I32856
sg4
I01
sg5
I2
saa(lp966
F472.0175394386866
a(dp967
g3
I1
sg4
I01
sg5
I2
saa(lp968
F474.3358441504346
a(dp969
g3
I1
sg4
I01
sg5
I2
saa(lp970
F475.80356392034327
a(dp971
g3
I2
sg4
I01
sg5
I2
saa(lp972
F475.81048743334975
a(dp973
g3
I1
sg4
I01
sg5
I2
saa(lp974
F478.0203017384174
a(dp975
g3
I14549
sg4
I01
sg5
I2
saa(lp976
F478.0473926082461
a(dp977
g3
I1102
sg4
I01
sg5
I2
saa(lp978
F478.28205242175625
a(dp979
g3
I4994
sg4
I01
sg5
I2
saa(lp980
F480.4270154568895
a(dp981
g3
I353
sg4
I01
sg5
I2
saa(lp982
F483.5898839291479
a(dp983
g3
I10861
sg4
I01
sg5
I2
saa(lp984
F483.6475868665812
a(dp985
g3
I1
sg4
I01
sg5
I2
saa(lp986
F484.8311821947072
a(dp987
g3
I4960
sg4
I01
sg5
I2
saa(lp988
F484.9248285242936
a(dp989
g3
I84068
sg4
I01
sg5
I2
saa(lp990
F485.54536333974227
a(dp991
g3
I1
sg4
I01
sg5
I2
saa(lp992
F485.98823425700255
a(dp993
g3
I2
sg4
I01
sg5
I2
saa(lp994
F487.41705282325404
a(dp995
g3
I1
sg4
I01
sg5
I2
saa(lp996
F493.00546062971955
a(dp997
g3
I1
sg4
I01
sg5
I2
saa(lp998
F496.0003643520883
a(dp999
g3
I516
sg4
I01
sg5
I2
saa(lp1000
F497.4614428410536
a(dp1001
g3
I14
sg4
I01
sg5
I2
saa(lp1002
F497.5698335003079
a(dp1003
g3
I17734
sg4
I01
sg5
I2
saa.