(lp0
(lp1
F0.7985885905036684
a(dp2
S'content'
p3
I28535
sS'log'
p4
I00
sS'receiver'
p5
I2
saa(lp6
F0.9715566384212637
a(dp7
g3
I28464
sg4
I00
sg5
I2
saa(lp8
F2.478658728905201
a(dp9
g3
I32
sg4
I00
sg5
I2
saa(lp10
F3.1692697307235087
a(dp11
g3
I2305
sg4
I00
sg5
I2
saa(lp12
F4.275814651679741
a(dp13
g3
I4591
sg4
I00
sg5
I2
saa(lp14
F4.457810335363034
a(dp15
g3
I11887
sg4
I00
sg5
I2
saa(lp16
F5.361929840377586
a(dp17
g3
I180
sg4
I00
sg5
I2
saa(lp18
F5.559588528140858
a(dp19
g3
I5955
sg4
I00
sg5
I2
saa(lp20
F7.194379329181033
a(dp21
g3
I3595
sg4
I00
sg5
I2
saa(lp22
F8.966727776650425
a(dp23
g3
I3
sg4
I00
sg5
I2
saa(lp24
F9.101275278002701
a(dp25
g3
I1
sg4
I00
sg5
I2
saa(lp26
F9.738208567234464
a(dp27
g3
I36845
sg4
I00
sg5
I2
saa(lp28
F10.353173126798666
a(dp29
g3
I72613
sg4
I00
sg5
I2
saa(lp30
F11.303940892908239
a(dp31
g3
I92
sg4
I00
sg5
I2
saa(lp32
F11.915865545756391
a(dp33
g3
I11181
sg4
I00
sg5
I2
saa(lp34
F14.740537946857474
a(dp35
g3
I3
sg4
I00
sg5
I2
saa(lp36
F16.219497913879245
a(dp37
g3
I3113
sg4
I00
sg5
I2
saa(lp38
F17.664616858627266
a(dp39
g3
I9224
sg4
I00
sg5
I2
saa(lp40
F19.060406019236503
a(dp41
g3
I418
sg4
I00
sg5
I2
saa(lp42
F19.177287536138394
a(dp43
g3
I4
sg4
I00
sg5
I2
saa(lp44
F21.318020431383932
a(dp45
g3
I36
sg4
I00
sg5
I2
saa(lp46
F21.731743589578585
a(dp47
g3
I831
sg4
I00
sg5
I2
saa(lp48
F22.33730106964131
a(dp49
g3
I383
sg4
I00
sg5
I2
saa(lp50
F22.649489017277432
a(dp51
g3
I14
sg4
I00
sg5
I2
saa(lp52
F22.802239605379913
a(dp53
g3
I7154
sg4
I00
sg5
I2
saa(lp54
F24.15036576272523
a(dp55
g3
I93417
sg4
I00
sg5
I2
saa(lp56
F24.68432226578409
a(dp57
g3
I3256
sg4
I00
sg5
I2
saa(lp58
F24.949986458345858
a(dp59
g3
I2151
sg4
I00
sg5
I2
saa(lp60
F26.227647962884205
a(dp61
g3
I68011
sg4
I00
sg5
I2
saa(lp62
F27.24758900606703
a(dp63
g3
I89
sg4
I00
sg5
I2
saa(lp64
F32.60990365435812
a(dp65
g3
I7617
sg4
I00
sg5
I2
saa(lp66
F32.84049949719161
a(dp67
g3
I3236
sg4
I00
sg5
I2
saa(lp68
F33.14287409897194
a(dp69
g3
I38167
sg4
I00
sg5
I2
saa(lp70
F34.163494992278125
a(dp71
g3
I92
sg4
I00
sg5
I2
saa(lp72
F34.55226420616196
a(dp73
g3
I1016
sg4
I00
sg5
I2
saa(lp74
F35.79672798147924
a(dp75
g3
I55145
sg4
I00
sg5
I2
saa(lp76
F36.341025634167295
a(dp77
g3
I43
sg4
I00
sg5
I2
saa(lp78
F37.49190487217345
a(dp79
g3
I2729
sg4
I00
sg5
I2
saa(lp80
F37.79818388688895
a(dp81
g3
I144
sg4
I00
sg5
I2
saa(lp82
F38.71646119077583
a(dp83
g3
I94
sg4
I00
sg5
I2
saa(lp84
F39.40327363832303
a(dp85
g3
I15
sg4
I00
sg5
I2
saa(lp86
F40.87667242302231
a(dp87
g3
I97512
sg4
I00
sg5
I2
saa(lp88
F40.987188903923816
a(dp89
g3
I10773
sg4
I00
sg5
I2
saa(lp90
F41.814846853470975
a(dp91
g3
I1166
sg4
I00
sg5
I2
saa(lp92
F42.158575021246776
a(dp93
g3
I2906
sg4
I00
sg5
I2
saa(lp94
F45.0331640996856
a(dp95
g3
I46459
sg4
I00
sg5
I2
saa(lp96
F46.935698935056294
a(dp97
g3
I33454
sg4
I00
sg5
I2
saa(lp98
F47.911018312191494
a(dp99
g3
I1
sg4
I00
sg5
I2
saa(lp100
F48.82297032338687
a(dp101
g3
I552
sg4
I00
sg5
I2
saa(lp102
F49.67337668608874
a(dp103
g3
I11281
sg4
I00
sg5
I2
saa(lp104
F50.559992912459826
a(dp105
g3
I4606
sg4
I00
sg5
I2
saa(lp106
F52.94996414580951
a(dp107
g3
I79991
sg4
I00
sg5
I2
saa(lp108
F53.02236918425142
a(dp109
g3
I3
sg4
I00
sg5
I2
saa(lp110
F53.098872988756774
a(dp111
g3
I983
sg4
I00
sg5
I2
saa(lp112
F53.538275127651914
a(dp113
g3
I895
sg4
I00
sg5
I2
saa(lp114
F55.338308669414864
a(dp115
g3
I89988
sg4
I00
sg5
I2
saa(lp116
F55.4329675931624
a(dp117
g3
I1
sg4
I00
sg5
I2
saa(lp118
F55.686313256809264
a(dp119
g3
I227
sg4
I00
sg5
I2
saa(lp120
F56.06144336241311
a(dp121
g3
I87
sg4
I00
sg5
I2
saa(lp122
F56.6521336532071
a(dp123
g3
I22352
sg4
I00
sg5
I2
saa(lp124
F56.97451877903085
a(dp125
g3
I72
sg4
I00
sg5
I2
saa(lp126
F57.0245765085076
a(dp127
g3
I239
sg4
I00
sg5
I2
saa(lp128
F57.30006122372586
a(dp129
g3
I1
sg4
I00
sg5
I2
saa(lp130
F57.672740442610625
a(dp131
g3
I809
sg4
I00
sg5
I2
saa(lp132
F57.86163369438423
a(dp133
g3
I98
sg4
I00
sg5
I2
saa(lp134
F58.30646666318595
a(dp135
g3
I6
sg4
I00
sg5
I2
saa(lp136
F58.79582050874202
a(dp137
g3
I397
sg4
I00
sg5
I2
saa(lp138
F60.223711132634
a(dp139
g3
I1690
sg4
I00
sg5
I2
saa(lp140
F60.89589786889858
a(dp141
g3
I174
sg4
I00
sg5
I2
saa(lp142
F61.29442449571785
a(dp143
g3
I5564
sg4
I00
sg5
I2
saa(lp144
F62.16189132670475
a(dp145
g3
I2
sg4
I00
sg5
I2
saa(lp146
F62.547938167950534
a(dp147
g3
I1
sg4
I00
sg5
I2
saa(lp148
F64.91568536364716
a(dp149
g3
I19617
sg4
I00
sg5
I2
saa(lp150
F65.07914551510565
a(dp151
g3
I23256
sg4
I00
sg5
I2
saa(lp152
F65.19489504897855
a(dp153
g3
I7546
sg4
I00
sg5
I2
saa(lp154
F67.62573937984497
a(dp155
g3
I10458
sg4
I00
sg5
I2
saa(lp156
F67.62633960912808
a(dp157
g3
I45682
sg4
I00
sg5
I2
saa(lp158
F68.4061855266763
a(dp159
g3
I15659
sg4
I00
sg5
I2
saa(lp160
F69.11769340874679
a(dp161
g3
I29549
sg4
I00
sg5
I2
saa(lp162
F70.59312784078095
a(dp163
g3
I1796
sg4
I00
sg5
I2
saa(lp164
F71.62909011125657
a(dp165
g3
I36
sg4
I00
sg5
I2
saa(lp166
F71.72235321512035
a(dp167
g3
I219
sg4
I00
sg5
I2
saa(lp168
F73.11951216635158
a(dp169
g3
I42
sg4
I00
sg5
I2
saa(lp170
F74.61767425037841
a(dp171
g3
I2
sg4
I00
sg5
I2
saa(lp172
F74.64922499164456
a(dp173
g3
I2
sg4
I00
sg5
I2
saa(lp174
F74.77110985008302
a(dp175
g3
I4
sg4
I00
sg5
I2
saa(lp176
F75.29308952371082
a(dp177
g3
I9
sg4
I00
sg5
I2
saa(lp178
F75.44887150811827
a(dp179
g3
I3
sg4
I00
sg5
I2
saa(lp180
F76.91846280011455
a(dp181
g3
I41
sg4
I00
sg5
I2
saa(lp182
F77.63459050925833
a(dp183
g3
I88423
sg4
I00
sg5
I2
saa(lp184
F78.58824595206946
a(dp185
g3
I70277
sg4
I00
sg5
I2
saa(lp186
F78.62044572848004
a(dp187
g3
I10
sg4
I00
sg5
I2
saa(lp188
F81.0306372762046
a(dp189
g3
I10148
sg4
I00
sg5
I2
saa(lp190
F82.25455564291634
a(dp191
g3
I6663
sg4
I00
sg5
I2
saa(lp192
F84.71203827167412
a(dp193
g3
I87063
sg4
I00
sg5
I2
saa(lp194
F85.48222362235884
a(dp195
g3
I28
sg4
I00
sg5
I2
saa(lp196
F85.99924458521294
a(dp197
g3
I2013
sg4
I00
sg5
I2
saa(lp198
F86.34377992900812
a(dp199
g3
I650
sg4
I00
sg5
I2
saa(lp200
F86.72422515916381
a(dp201
g3
I11829
sg4
I00
sg5
I2
saa(lp202
F86.84796831769421
a(dp203
g3
I4
sg4
I00
sg5
I2
saa(lp204
F88.55229974705162
a(dp205
g3
I2350
sg4
I01
sg5
I2
saa(lp206
F88.5941507373175
a(dp207
g3
I5
sg4
I01
sg5
I2
saa(lp208
F88.77362161236691
a(dp209
g3
I9
sg4
I01
sg5
I2
saa(lp210
F89.45266830369849
a(dp211
g3
I7
sg4
I01
sg5
I2
saa(lp212
F90.44855576411604
a(dp213
g3
I486
sg4
I01
sg5
I2
saa(lp214
F91.47790591475751
a(dp215
g3
I227
sg4
I01
sg5
I2
saa(lp216
F91.80056122397094
a(dp217
g3
I7430
sg4
I01
sg5
I2
saa(lp218
F92.05263798579689
a(dp219
g3
I15
sg4
I01
sg5
I2
saa(lp220
F92.18369699277298
a(dp221
g3
I1
sg4
I01
sg5
I2
saa(lp222
F92.42758176772627
a(dp223
g3
I3
sg4
I01
sg5
I2
saa(lp224
F93.17657623121954
a(dp225
g3
I5849
sg4
I01
sg5
I2
saa(lp226
F93.71753748492841
a(dp227
g3
I121
sg4
I01
sg5
I2
saa(lp228
F94.03599070209077
a(dp229
g3
I3
sg4
I01
sg5
I2
saa(lp230
F94.91208439855387
a(dp231
g3
I508
sg4
I01
sg5
I2
saa(lp232
F95.57572505237042
a(dp233
g3
I50
sg4
I01
sg5
I2
saa(lp234
F99.95606673686927
a(dp235
g3
I3
sg4
I01
sg5
I2
saa(lp236
F100.44551596334006
a(dp237
g3
I14947
sg4
I01
sg5
I2
saa(lp238
F100.4676277909089
a(dp239
g3
I30
sg4
I01
sg5
I2
saa(lp240
F102.18552026527287
a(dp241
g3
I47
sg4
I01
sg5
I2
saa(lp242
F103.94550644576269
a(dp243
g3
I6520
sg4
I01
sg5
I2
saa(lp244
F106.35329110950276
a(dp245
g3
I7676
sg4
I01
sg5
I2
saa(lp246
F106.49420304067144
a(dp247
g3
I1
sg4
I01
sg5
I2
saa(lp248
F109.07028485339819
a(dp249
g3
I2
sg4
I01
sg5
I2
saa(lp250
F109.50105169111663
a(dp251
g3
I21
sg4
I01
sg5
I2
saa(lp252
F111.03051509945386
a(dp253
g3
I2074
sg4
I01
sg5
I2
saa(lp254
F111.16307622543455
a(dp255
g3
I961
sg4
I01
sg5
I2
saa(lp256
F111.32411164214287
a(dp257
g3
I1
sg4
I01
sg5
I2
saa(lp258
F112.21070028864054
a(dp259
g3
I18
sg4
I01
sg5
I2
saa(lp260
F113.0119857129742
a(dp261
g3
I562
sg4
I01
sg5
I2
saa(lp262
F113.28270390809094
a(dp263
g3
I41
sg4
I01
sg5
I2
saa(lp264
F114.14362485920225
a(dp265
g3
I51825
sg4
I01
sg5
I2
saa(lp266
F118.01050954504322
a(dp267
g3
I19944
sg4
I01
sg5
I2
saa(lp268
F118.11791104223344
a(dp269
g3
I304
sg4
I01
sg5
I2
saa(lp270
F119.38581457146614
a(dp271
g3
I42
sg4
I01
sg5
I2
saa(lp272
F119.62293436683171
a(dp273
g3
I1
sg4
I01
sg5
I2
saa(lp274
F119.96924919840002
a(dp275
g3
I13561
sg4
I01
sg5
I2
saa(lp276
F120.02896999826193
a(dp277
g3
I2
sg4
I01
sg5
I2
saa(lp278
F121.08864780393947
a(dp279
g3
I3
sg4
I01
sg5
I2
saa(lp280
F121.55334507945878
a(dp281
g3
I5221
sg4
I01
sg5
I2
saa(lp282
F122.40589166637842
a(dp283
g3
I15182
sg4
I01
sg5
I2
saa(lp284
F123.73617217629352
a(dp285
g3
I2
sg4
I01
sg5
I2
saa(lp286
F124.13733220180465
a(dp287
g3
I1115
sg4
I01
sg5
I2
saa(lp288
F126.34916453554182
a(dp289
g3
I3969
sg4
I01
sg5
I2
saa(lp290
F127.81771400866779
a(dp291
g3
I447
sg4
I01
sg5
I2
saa(lp292
F127.84619849392115
a(dp293
g3
I64
sg4
I01
sg5
I2
saa(lp294
F128.34284297711926
a(dp295
g3
I818
sg4
I01
sg5
I2
saa(lp296
F131.11878960961732
a(dp297
g3
I491
sg4
I01
sg5
I2
saa(lp298
F131.585880165096
a(dp299
g3
I6
sg4
I01
sg5
I2
saa(lp300
F131.82718187043218
a(dp301
g3
I12
sg4
I01
sg5
I2
saa(lp302
F132.01654726983512
a(dp303
g3
I43058
sg4
I01
sg5
I2
saa(lp304
F132.22957319424623
a(dp305
g3
I35
sg4
I01
sg5
I2
saa(lp306
F132.25386624486157
a(dp307
g3
I2
sg4
I01
sg5
I2
saa(lp308
F132.74703786483832
a(dp309
g3
I262
sg4
I01
sg5
I2
saa(lp310
F133.8827278230349
a(dp311
g3
I103
sg4
I01
sg5
I2
saa(lp312
F133.95644128756854
a(dp313
g3
I79120
sg4
I01
sg5
I2
saa(lp314
F134.39263455833768
a(dp315
g3
I11728
sg4
I01
sg5
I2
saa(lp316
F135.46248692910396
a(dp317
g3
I161
sg4
I01
sg5
I2
saa(lp318
F135.72162549697236
a(dp319
g3
I6
sg4
I01
sg5
I2
saa(lp320
F135.8781311632795
a(dp321
g3
I29
sg4
I01
sg5
I2
saa(lp322
F136.9513779483851
a(dp323
g3
I43
sg4
I01
sg5
I2
saa(lp324
F137.20048668950184
a(dp325
g3
I589
sg4
I01
sg5
I2
saa(lp326
F137.37279161831333
a(dp327
g3
I9860
sg4
I01
sg5
I2
saa(lp328
F137.4873418545314
a(dp329
g3
I1
sg4
I01
sg5
I2
saa(lp330
F138.1357083123191
a(dp331
g3
I280
sg4
I01
sg5
I2
saa(lp332
F138.7965350046795
a(dp333
g3
I4
sg4
I01
sg5
I2
saa(lp334
F139.22401248290385
a(dp335
g3
I8749
sg4
I01
sg5
I2
saa(lp336
F139.9130568090327
a(dp337
g3
I32
sg4
I01
sg5
I2
saa(lp338
F141.43952499447866
a(dp339
g3
I127
sg4
I01
sg5
I2
saa(lp340
F141.86957796465353
a(dp341
g3
I38
sg4
I01
sg5
I2
saa(lp342
F141.92031917483234
a(dp343
g3
I14617
sg4
I01
sg5
I2
saa(lp344
F142.53575950358248
a(dp345
g3
I1580
sg4
I01
sg5
I2
saa(lp346
F142.9410079545249
a(dp347
g3
I31
sg4
I01
sg5
I2
saa(lp348
F143.50198899759835
a(dp349
g3
I2328
sg4
I01
sg5
I2
saa(lp350
F144.44344976951368
a(dp351
g3
I2
sg4
I01
sg5
I2
saa(lp352
F144.47793504301075
a(dp353
g3
I3
sg4
I01
sg5
I2
saa(lp354
F144.97609167187392
a(dp355
g3
I13
sg4
I01
sg5
I2
saa(lp356
F145.5191508186766
a(dp357
g3
I8054
sg4
I01
sg5
I2
saa(lp358
F147.48494578945645
a(dp359
g3
I612
sg4
I01
sg5
I2
saa(lp360
F150.31727138801884
a(dp361
g3
I1385
sg4
I01
sg5
I2
saa(lp362
F151.07774982892582
a(dp363
g3
I866
sg4
I01
sg5
I2
saa(lp364
F151.20021225225804
a(dp365
g3
I1
sg4
I01
sg5
I2
saa(lp366
F151.92587668790674
a(dp367
g3
I1392
sg4
I01
sg5
I2
saa(lp368
F153.76958157127143
a(dp369
g3
I25
sg4
I01
sg5
I2
saa(lp370
F154.62857970296326
a(dp371
g3
I290
sg4
I01
sg5
I2
saa(lp372
F154.7816844158416
a(dp373
g3
I274
sg4
I01
sg5
I2
saa(lp374
F154.86709505715817
a(dp375
g3
I373
sg4
I01
sg5
I2
saa(lp376
F157.36824944196732
a(dp377
g3
I49513
sg4
I01
sg5
I2
saa(lp378
F158.11680251804606
a(dp379
g3
I6533
sg4
I01
sg5
I2
saa(lp380
F158.47846906430243
a(dp381
g3
I12
sg4
I01
sg5
I2
saa(lp382
F158.55299269764822
a(dp383
g3
I19
sg4
I01
sg5
I2
saa(lp384
F160.36405094292613
a(dp385
g3
I7152
sg4
I01
sg5
I2
saa(lp386
F160.51813521037388
a(dp387
g3
I40291
sg4
I01
sg5
I2
saa(lp388
F160.76316676473164
a(dp389
g3
I419
sg4
I01
sg5
I2
saa(lp390
F162.82590008661248
a(dp391
g3
I696
sg4
I01
sg5
I2
saa(lp392
F163.58476635753456
a(dp393
g3
I15
sg4
I01
sg5
I2
saa(lp394
F164.44618721015974
a(dp395
g3
I2608
sg4
I01
sg5
I2
saa(lp396
F169.16273366342406
a(dp397
g3
I944
sg4
I01
sg5
I2
saa(lp398
F169.2609948223236
a(dp399
g3
I378
sg4
I01
sg5
I2
saa(lp400
F170.50953745430616
a(dp401
g3
I161
sg4
I01
sg5
I2
saa(lp402
F170.9759979262282
a(dp403
g3
I2
sg4
I01
sg5
I2
saa(lp404
F171.56685868444927
a(dp405
g3
I37265
sg4
I01
sg5
I2
saa(lp406
F171.69097106924048
a(dp407
g3
I1602
sg4
I01
sg5
I2
saa(lp408
F177.68955421526175
a(dp409
g3
I1629
sg4
I01
sg5
I2
saa(lp410
F177.8897656436468
a(dp411
g3
I5030
sg4
I01
sg5
I2
saa(lp412
F180.55584585788674
a(dp413
g3
I10
sg4
I01
sg5
I2
saa(lp414
F182.06090277590087
a(dp415
g3
I15205
sg4
I01
sg5
I2
saa(lp416
F183.04375967760808
a(dp417
g3
I147
sg4
I01
sg5
I2
saa(lp418
F183.18735793768133
a(dp419
g3
I53889
sg4
I01
sg5
I2
saa(lp420
F184.4415038878579
a(dp421
g3
I2374
sg4
I01
sg5
I2
saa(lp422
F184.59415375462842
a(dp423
g3
I11351
sg4
I01
sg5
I2
saa(lp424
F185.6825686591401
a(dp425
g3
I662
sg4
I01
sg5
I2
saa(lp426
F188.74744692074955
a(dp427
g3
I1422
sg4
I01
sg5
I2
saa(lp428
F190.14692477621776
a(dp429
g3
I3
sg4
I01
sg5
I2
saa(lp430
F190.329982242009
a(dp431
g3
I7
sg4
I01
sg5
I2
saa(lp432
F191.00881496710124
a(dp433
g3
I20
sg4
I01
sg5
I2
saa(lp434
F194.020264954967
a(dp435
g3
I281
sg4
I01
sg5
I2
saa(lp436
F196.47541597492133
a(dp437
g3
I3549
sg4
I01
sg5
I2
saa(lp438
F196.51855557665002
a(dp439
g3
I23286
sg4
I01
sg5
I2
saa(lp440
F197.00651099218734
a(dp441
g3
I506
sg4
I01
sg5
I2
saa(lp442
F197.66090561783028
a(dp443
g3
I1
sg4
I01
sg5
I2
saa(lp444
F197.7302481286112
a(dp445
g3
I1358
sg4
I01
sg5
I2
saa(lp446
F199.40629706670217
a(dp447
g3
I7190
sg4
I01
sg5
I2
saa(lp448
F203.74847572777458
a(dp449
g3
I41921
sg4
I01
sg5
I2
saa(lp450
F203.7822148565995
a(dp451
g3
I7
sg4
I01
sg5
I2
saa(lp452
F204.8319494900492
a(dp453
g3
I52739
sg4
I01
sg5
I2
saa(lp454
F205.0787686807868
a(dp455
g3
I259
sg4
I01
sg5
I2
saa(lp456
F206.7735731597119
a(dp457
g3
I194
sg4
I01
sg5
I2
saa(lp458
F207.30521193003213
a(dp459
g3
I2
sg4
I01
sg5
I2
saa(lp460
F207.56740751570007
a(dp461
g3
I238
sg4
I01
sg5
I2
saa(lp462
F209.22085705629533
a(dp463
g3
I70
sg4
I01
sg5
I2
saa(lp464
F211.3166811886887
a(dp465
g3
I1
sg4
I01
sg5
I2
saa(lp466
F212.5256882167156
a(dp467
g3
I16228
sg4
I01
sg5
I2
saa(lp468
F214.6688257821869
a(dp469
g3
I14560
sg4
I01
sg5
I2
saa(lp470
F214.78542116865833
a(dp471
g3
I758
sg4
I01
sg5
I2
saa(lp472
F215.2492605299595
a(dp473
g3
I2691
sg4
I01
sg5
I2
saa(lp474
F215.90501054556074
a(dp475
g3
I3425
sg4
I01
sg5
I2
saa(lp476
F216.2204746253244
a(dp477
g3
I421
sg4
I01
sg5
I2
saa(lp478
F217.06786318395945
a(dp479
g3
I474
sg4
I01
sg5
I2
saa(lp480
F217.13474918220774
a(dp481
g3
I5
sg4
I01
sg5
I2
saa(lp482
F220.02846917173497
a(dp483
g3
I3
sg4
I01
sg5
I2
saa(lp484
F220.06992518303687
a(dp485
g3
I15
sg4
I01
sg5
I2
saa(lp486
F220.24732983633137
a(dp487
g3
I2
sg4
I01
sg5
I2
saa(lp488
F221.65369566847494
a(dp489
g3
I49
sg4
I01
sg5
I2
saa(lp490
F223.49056039529526
a(dp491
g3
I23
sg4
I01
sg5
I2
saa(lp492
F224.4496689076411
a(dp493
g3
I61336
sg4
I01
sg5
I2
saa(lp494
F226.7302548874584
a(dp495
g3
I1
sg4
I01
sg5
I2
saa(lp496
F227.09278793980596
a(dp497
g3
I1029
sg4
I01
sg5
I2
saa(lp498
F228.2961351180255
a(dp499
g3
I3
sg4
I01
sg5
I2
saa(lp500
F228.4427839502143
a(dp501
g3
I1
sg4
I01
sg5
I2
saa(lp502
F229.6086957058718
a(dp503
g3
I6
sg4
I01
sg5
I2
saa(lp504
F229.72419284306756
a(dp505
g3
I15002
sg4
I01
sg5
I2
saa(lp506
F230.0467949714243
a(dp507
g3
I2
sg4
I01
sg5
I2
saa(lp508
F230.28161430463854
a(dp509
g3
I2
sg4
I01
sg5
I2
saa(lp510
F231.34597561416726
a(dp511
g3
I18
sg4
I01
sg5
I2
saa(lp512
F232.4324828520419
a(dp513
g3
I150
sg4
I01
sg5
I2
saa(lp514
F232.87321231828577
a(dp515
g3
I21
sg4
I01
sg5
I2
saa(lp516
F234.73474414167913
a(dp517
g3
I13402
sg4
I01
sg5
I2
saa(lp518
F234.75673013276966
a(dp519
g3
I2496
sg4
I01
sg5
I2
saa(lp520
F235.57371301324156
a(dp521
g3
I10
sg4
I01
sg5
I2
saa(lp522
F236.1847971663369
a(dp523
g3
I30647
sg4
I01
sg5
I2
saa(lp524
F236.83142107813742
a(dp525
g3
I66850
sg4
I01
sg5
I2
saa(lp526
F238.13162273066231
a(dp527
g3
I424
sg4
I01
sg5
I2
saa(lp528
F238.59258010150555
a(dp529
g3
I524
sg4
I01
sg5
I2
saa(lp530
F241.06324336961256
a(dp531
g3
I25724
sg4
I01
sg5
I2
saa(lp532
F243.38080764325795
a(dp533
g3
I77
sg4
I01
sg5
I2
saa(lp534
F243.48629465232744
a(dp535
g3
I3
sg4
I01
sg5
I2
saa(lp536
F243.53935420141121
a(dp537
g3
I103
sg4
I01
sg5
I2
saa(lp538
F243.66174020385054
a(dp539
g3
I11885
sg4
I01
sg5
I2
saa(lp540
F243.766232316368
a(dp541
g3
I614
sg4
I01
sg5
I2
saa(lp542
F244.57814775196087
a(dp543
g3
I19
sg4
I01
sg5
I2
saa(lp544
F246.104973799139
a(dp545
g3
I91
sg4
I01
sg5
I2
saa(lp546
F246.5999469201859
a(dp547
g3
I40
sg4
I01
sg5
I2
saa(lp548
F248.43396351299367
a(dp549
g3
I34
sg4
I01
sg5
I2
saa(lp550
F249.44609942317757
a(dp551
g3
I1008
sg4
I01
sg5
I2
saa(lp552
F249.45846512419607
a(dp553
g3
I17
sg4
I01
sg5
I2
saa(lp554
F249.9747084964201
a(dp555
g3
I410
sg4
I01
sg5
I2
saa(lp556
F250.15940911340462
a(dp557
g3
I11
sg4
I01
sg5
I2
saa(lp558
F251.38329964586006
a(dp559
g3
I28
sg4
I01
sg5
I2
saa(lp560
F251.4006867132942
a(dp561
g3
I6107
sg4
I01
sg5
I2
saa(lp562
F251.94740726001461
a(dp563
g3
I11441
sg4
I01
sg5
I2
saa(lp564
F252.3449758436409
a(dp565
g3
I6804
sg4
I01
sg5
I2
saa(lp566
F252.4381464831354
a(dp567
g3
I25
sg4
I01
sg5
I2
saa(lp568
F253.72784075874463
a(dp569
g3
I25
sg4
I01
sg5
I2
saa(lp570
F256.5103304706574
a(dp571
g3
I2
sg4
I01
sg5
I2
saa(lp572
F258.9316620254544
a(dp573
g3
I3
sg4
I01
sg5
I2
saa(lp574
F260.1127877754248
a(dp575
g3
I28434
sg4
I01
sg5
I2
saa(lp576
F261.4314975136637
a(dp577
g3
I52250
sg4
I01
sg5
I2
saa(lp578
F264.4717551190779
a(dp579
g3
I344
sg4
I01
sg5
I2
saa(lp580
F264.7985129118309
a(dp581
g3
I2192
sg4
I01
sg5
I2
saa(lp582
F266.70938321569497
a(dp583
g3
I2923
sg4
I01
sg5
I2
saa(lp584
F266.87379831321016
a(dp585
g3
I2371
sg4
I01
sg5
I2
saa(lp586
F268.5860474204304
a(dp587
g3
I8
sg4
I01
sg5
I2
saa(lp588
F269.9039113793251
a(dp589
g3
I2
sg4
I01
sg5
I2
saa(lp590
F272.54887239073423
a(dp591
g3
I6469
sg4
I01
sg5
I2
saa(lp592
F273.24573731241776
a(dp593
g3
I1456
sg4
I01
sg5
I2
saa(lp594
F273.35415950549583
a(dp595
g3
I407
sg4
I01
sg5
I2
saa(lp596
F273.58049571033536
a(dp597
g3
I11
sg4
I01
sg5
I2
saa(lp598
F278.5890218828158
a(dp599
g3
I47395
sg4
I01
sg5
I2
saa(lp600
F280.5252487621276
a(dp601
g3
I22487
sg4
I01
sg5
I2
saa(lp602
F281.5656580379854
a(dp603
g3
I155
sg4
I01
sg5
I2
saa(lp604
F282.3749358277185
a(dp605
g3
I2
sg4
I01
sg5
I2
saa(lp606
F282.93424659938427
a(dp607
g3
I10
sg4
I01
sg5
I2
saa(lp608
F283.68991588478053
a(dp609
g3
I12
sg4
I01
sg5
I2
saa(lp610
F284.6832335572639
a(dp611
g3
I79
sg4
I01
sg5
I2
saa(lp612
F285.3745333521878
a(dp613
g3
I43
sg4
I01
sg5
I2
saa(lp614
F286.04800122361485
a(dp615
g3
I14
sg4
I01
sg5
I2
saa(lp616
F286.91964548290764
a(dp617
g3
I1336
sg4
I01
sg5
I2
saa(lp618
F288.01407158520493
a(dp619
g3
I41
sg4
I01
sg5
I2
saa(lp620
F288.724250264841
a(dp621
g3
I6
sg4
I01
sg5
I2
saa(lp622
F288.78951654683385
a(dp623
g3
I18
sg4
I01
sg5
I2
saa(lp624
F289.57672384347256
a(dp625
g3
I11
sg4
I01
sg5
I2
saa(lp626
F289.63401671487406
a(dp627
g3
I3
sg4
I01
sg5
I2
saa(lp628
F290.0113427352893
a(dp629
g3
I96
sg4
I01
sg5
I2
saa(lp630
F290.65089914174587
a(dp631
g3
I2
sg4
I01
sg5
I2
saa(lp632
F290.93849348923396
a(dp633
g3
I11
sg4
I01
sg5
I2
saa(lp634
F290.96456373707474
a(dp635
g3
I6110
sg4
I01
sg5
I2
saa(lp636
F291.1405016723919
a(dp637
g3
I1
sg4
I01
sg5
I2
saa(lp638
F292.1429597214976
a(dp639
g3
I3
sg4
I01
sg5
I2
saa(lp640
F293.15239653631033
a(dp641
g3
I1
sg4
I01
sg5
I2
saa(lp642
F295.6527478890538
a(dp643
g3
I949
sg4
I01
sg5
I2
saa(lp644
F295.7276271879656
a(dp645
g3
I460
sg4
I01
sg5
I2
saa(lp646
F296.4450008548043
a(dp647
g3
I208
sg4
I01
sg5
I2
saa(lp648
F298.83489676769085
a(dp649
g3
I4
sg4
I01
sg5
I2
saa(lp650
F298.8526907378855
a(dp651
g3
I5900
sg4
I01
sg5
I2
saa(lp652
F299.77968596304004
a(dp653
g3
I9913
sg4
I01
sg5
I2
saa(lp654
F299.8806729504366
a(dp655
g3
I681
sg4
I01
sg5
I2
saa(lp656
F299.9185561867369
a(dp657
g3
I8145
sg4
I01
sg5
I2
saa(lp658
F300.9724693935968
a(dp659
g3
I344
sg4
I01
sg5
I2
saa(lp660
F301.67228432116417
a(dp661
g3
I22
sg4
I01
sg5
I2
saa(lp662
F302.52147672612836
a(dp663
g3
I332
sg4
I01
sg5
I2
saa(lp664
F303.4607850018649
a(dp665
g3
I87
sg4
I01
sg5
I2
saa(lp666
F304.74376843842015
a(dp667
g3
I1
sg4
I01
sg5
I2
saa(lp668
F305.2699818551695
a(dp669
g3
I9
sg4
I01
sg5
I2
saa(lp670
F308.03083022538783
a(dp671
g3
I2
sg4
I01
sg5
I2
saa(lp672
F309.7955650194486
a(dp673
g3
I1
sg4
I01
sg5
I2
saa(lp674
F310.08659905712454
a(dp675
g3
I9450
sg4
I01
sg5
I2
saa(lp676
F311.00209521636936
a(dp677
g3
I1
sg4
I01
sg5
I2
saa(lp678
F311.63676916867286
a(dp679
g3
I17
sg4
I01
sg5
I2
saa(lp680
F313.9628713546013
a(dp681
g3
I8546
sg4
I01
sg5
I2
saa(lp682
F314.7839546748716
a(dp683
g3
I87154
sg4
I01
sg5
I2
saa(lp684
F316.1335396623848
a(dp685
g3
I9418
sg4
I01
sg5
I2
saa(lp686
F316.1474165466094
a(dp687
g3
I9001
sg4
I01
sg5
I2
saa(lp688
F316.166243004293
a(dp689
g3
I2
sg4
I01
sg5
I2
saa(lp690
F316.2125081693321
a(dp691
g3
I5
sg4
I01
sg5
I2
saa(lp692
F317.2256749260038
a(dp693
g3
I227
sg4
I01
sg5
I2
saa(lp694
F317.97288428153524
a(dp695
g3
I622
sg4
I01
sg5
I2
saa(lp696
F318.10743379397593
a(dp697
g3
I54
sg4
I01
sg5
I2
saa(lp698
F319.6737278928712
a(dp699
g3
I10
sg4
I01
sg5
I2
saa(lp700
F321.7863401740598
a(dp701
g3
I3
sg4
I01
sg5
I2
saa(lp702
F322.3022953626025
a(dp703
g3
I26772
sg4
I01
sg5
I2
saa(lp704
F323.8834125456082
a(dp705
g3
I1
sg4
I01
sg5
I2
saa(lp706
F324.245551011737
a(dp707
g3
I22
sg4
I01
sg5
I2
saa(lp708
F325.3434340047269
a(dp709
g3
I54
sg4
I01
sg5
I2
saa(lp710
F325.9148800036377
a(dp711
g3
I1476
sg4
I01
sg5
I2
saa(lp712
F327.96658159490687
a(dp713
g3
I19328
sg4
I01
sg5
I2
saa(lp714
F332.0113781415765
a(dp715
g3
I498
sg4
I01
sg5
I2
saa(lp716
F334.529868598907
a(dp717
g3
I67
sg4
I01
sg5
I2
saa(lp718
F337.3521876869033
a(dp719
g3
I6468
sg4
I01
sg5
I2
saa(lp720
F338.26017232734495
a(dp721
g3
I42152
sg4
I01
sg5
I2
saa(lp722
F339.784964811169
a(dp723
g3
I90802
sg4
I01
sg5
I2
saa(lp724
F342.73237770004584
a(dp725
g3
I4
sg4
I01
sg5
I2
saa(lp726
F344.55995389430257
a(dp727
g3
I216
sg4
I01
sg5
I2
saa(lp728
F345.47552335857443
a(dp729
g3
I600
sg4
I01
sg5
I2
saa(lp730
F346.463558151474
a(dp731
g3
I21
sg4
I01
sg5
I2
saa(lp732
F347.9820695193589
a(dp733
g3
I45881
sg4
I01
sg5
I2
saa(lp734
F348.2696608265262
a(dp735
g3
I9001
sg4
I01
sg5
I2
saa(lp736
F350.05744678502754
a(dp737
g3
I19
sg4
I01
sg5
I2
saa(lp738
F350.87190365087355
a(dp739
g3
I1
sg4
I01
sg5
I2
saa(lp740
F352.50119527734097
a(dp741
g3
I2
sg4
I01
sg5
I2
saa(lp742
F352.6860256812637
a(dp743
g3
I70
sg4
I01
sg5
I2
saa(lp744
F354.3378808222199
a(dp745
g3
I1
sg4
I01
sg5
I2
saa(lp746
F355.5055524388748
a(dp747
g3
I10
sg4
I01
sg5
I2
saa(lp748
F356.0316317008483
a(dp749
g3
I17021
sg4
I01
sg5
I2
saa(lp750
F357.5193301060436
a(dp751
g3
I705
sg4
I01
sg5
I2
saa(lp752
F357.70497842642084
a(dp753
g3
I3550
sg4
I01
sg5
I2
saa(lp754
F358.59105935560507
a(dp755
g3
I12225
sg4
I01
sg5
I2
saa(lp756
F359.3182332308693
a(dp757
g3
I4547
sg4
I01
sg5
I2
saa(lp758
F360.00344702030463
a(dp759
g3
I15
sg4
I01
sg5
I2
saa(lp760
F360.62988711009916
a(dp761
g3
I3
sg4
I01
sg5
I2
saa(lp762
F360.8286486370173
a(dp763
g3
I562
sg4
I01
sg5
I2
saa(lp764
F362.82315771666117
a(dp765
g3
I269
sg4
I01
sg5
I2
saa(lp766
F363.5349853334684
a(dp767
g3
I2
sg4
I01
sg5
I2
saa(lp768
F364.3110322644807
a(dp769
g3
I21891
sg4
I01
sg5
I2
saa(lp770
F364.3155035835373
a(dp771
g3
I2824
sg4
I01
sg5
I2
saa(lp772
F365.27253999804634
a(dp773
g3
I78784
sg4
I01
sg5
I2
saa(lp774
F365.41751580303475
a(dp775
g3
I1
sg4
I01
sg5
I2
saa(lp776
F366.0078859801157
a(dp777
g3
I22
sg4
I01
sg5
I2
saa(lp778
F366.8856286803727
a(dp779
g3
I3631
sg4
I01
sg5
I2
saa(lp780
F368.00112490066823
a(dp781
g3
I18227
sg4
I01
sg5
I2
saa(lp782
F369.45444089704637
a(dp783
g3
I1
sg4
I01
sg5
I2
saa(lp784
F371.4177888870695
a(dp785
g3
I51527
sg4
I01
sg5
I2
saa(lp786
F371.99810909914396
a(dp787
g3
I903
sg4
I01
sg5
I2
saa(lp788
F373.0474642965252
a(dp789
g3
I398
sg4
I01
sg5
I2
saa(lp790
F373.18181402695484
a(dp791
g3
I10346
sg4
I01
sg5
I2
saa(lp792
F375.3037126623213
a(dp793
g3
I3
sg4
I01
sg5
I2
saa(lp794
F376.0178290737275
a(dp795
g3
I800
sg4
I01
sg5
I2
saa(lp796
F377.1188687771012
a(dp797
g3
I31
sg4
I01
sg5
I2
saa(lp798
F378.4171737071575
a(dp799
g3
I2859
sg4
I01
sg5
I2
saa(lp800
F380.2715208885119
a(dp801
g3
I10
sg4
I01
sg5
I2
saa(lp802
F381.2470080662395
a(dp803
g3
I2311
sg4
I01
sg5
I2
saa(lp804
F381.47079477944555
a(dp805
g3
I2801
sg4
I01
sg5
I2
saa(lp806
F382.5038870947162
a(dp807
g3
I3
sg4
I01
sg5
I2
saa(lp808
F384.67821461653153
a(dp809
g3
I7
sg4
I01
sg5
I2
saa(lp810
F385.95968012274744
a(dp811
g3
I1061
sg4
I01
sg5
I2
saa(lp812
F387.343708595838
a(dp813
g3
I13
sg4
I01
sg5
I2
saa(lp814
F388.0548389578347
a(dp815
g3
I734
sg4
I01
sg5
I2
saa(lp816
F388.25558312596104
a(dp817
g3
I78227
sg4
I01
sg5
I2
saa(lp818
F389.0721526235073
a(dp819
g3
I91659
sg4
I01
sg5
I2
saa(lp820
F390.6332152188852
a(dp821
g3
I140
sg4
I01
sg5
I2
saa(lp822
F390.84490648802154
a(dp823
g3
I210
sg4
I01
sg5
I2
saa(lp824
F390.9815171899649
a(dp825
g3
I53080
sg4
I01
sg5
I2
saa(lp826
F392.72013810634763
a(dp827
g3
I19208
sg4
I01
sg5
I2
saa(lp828
F394.08677703287435
a(dp829
g3
I805
sg4
I01
sg5
I2
saa(lp830
F394.29729681936607
a(dp831
g3
I28012
sg4
I01
sg5
I2
saa(lp832
F395.15095840469695
a(dp833
g3
I6016
sg4
I01
sg5
I2
saa(lp834
F396.220807077428
a(dp835
g3
I36
sg4
I01
sg5
I2
saa(lp836
F396.2458161684317
a(dp837
g3
I218
sg4
I01
sg5
I2
saa(lp838
F397.4534719919821
a(dp839
g3
I4
sg4
I01
sg5
I2
saa(lp840
F398.7091475645823
a(dp841
g3
I1
sg4
I01
sg5
I2
saa(lp842
F399.01989587225034
a(dp843
g3
I9802
sg4
I01
sg5
I2
saa(lp844
F401.0134477787781
a(dp845
g3
I8
sg4
I01
sg5
I2
saa(lp846
F403.62957965416155
a(dp847
g3
I83
sg4
I01
sg5
I2
saa(lp848
F404.1329170281413
a(dp849
g3
I4095
sg4
I01
sg5
I2
saa(lp850
F405.94859100082203
a(dp851
g3
I5541
sg4
I01
sg5
I2
saa(lp852
F407.2117301908899
a(dp853
g3
I20138
sg4
I01
sg5
I2
saa(lp854
F409.56428346811276
a(dp855
g3
I1
sg4
I01
sg5
I2
saa(lp856
F410.2333396205732
a(dp857
g3
I483
sg4
I01
sg5
I2
saa(lp858
F411.0446098980031
a(dp859
g3
I12
sg4
I01
sg5
I2
saa(lp860
F411.3922074144578
a(dp861
g3
I56990
sg4
I01
sg5
I2
saa(lp862
F411.83756350797086
a(dp863
g3
I137
sg4
I01
sg5
I2
saa(lp864
F412.6386845494579
a(dp865
g3
I1686
sg4
I01
sg5
I2
saa(lp866
F412.9666548806856
a(dp867
g3
I80469
sg4
I01
sg5
I2
saa(lp868
F413.8632840225528
a(dp869
g3
I5
sg4
I01
sg5
I2
saa(lp870
F415.8846124283101
a(dp871
g3
I4
sg4
I01
sg5
I2
saa(lp872
F417.622533513762
a(dp873
g3
I1
sg4
I01
sg5
I2
saa(lp874
F417.9353978017898
a(dp875
g3
I6
sg4
I01
sg5
I2
saa(lp876
F418.3861716543721
a(dp877
g3
I38713
sg4
I01
sg5
I2
saa(lp878
F419.05226566107643
a(dp879
g3
I205
sg4
I01
sg5
I2
saa(lp880
F419.53894286984905
a(dp881
g3
I1387
sg4
I01
sg5
I2
saa(lp882
F420.75925538812345
a(dp883
g3
I31922
sg4
I01
sg5
I2
saa(lp884
F420.8972180026221
a(dp885
g3
I14357
sg4
I01
sg5
I2
saa(lp886
F421.2720142236045
a(dp887
g3
I288
sg4
I01
sg5
I2
saa(lp888
F421.57448371447805
a(dp889
g3
I54
sg4
I01
sg5
I2
saa(lp890
F422.49428584589083
a(dp891
g3
I3984
sg4
I01
sg5
I2
saa(lp892
F422.9267932683483
a(dp893
g3
I42737
sg4
I01
sg5
I2
saa(lp894
F423.1462658574574
a(dp895
g3
I22
sg4
I01
sg5
I2
saa(lp896
F425.69372710644825
a(dp897
g3
I1926
sg4
I01
sg5
I2
saa(lp898
F426.44062989529397
a(dp899
g3
I16
sg4
I01
sg5
I2
saa(lp900
F426.49042040361974
a(dp901
g3
I3
sg4
I01
sg5
I2
saa(lp902
F427.39992455882003
a(dp903
g3
I1
sg4
I01
sg5
I2
saa(lp904
F429.38665417633064
a(dp905
g3
I44556
sg4
I01
sg5
I2
saa(lp906
F431.26116828462943
a(dp907
g3
I17
sg4
I01
sg5
I2
saa(lp908
F433.7009909356624
a(dp909
g3
I5
sg4
I01
sg5
I2
saa(lp910
F434.4048743680348
a(dp911
g3
I271
sg4
I01
sg5
I2
saa(lp912
F435.0138925358444
a(dp913
g3
I6
sg4
I01
sg5
I2
saa(lp914
F435.7319479945705
a(dp915
g3
I4
sg4
I01
sg5
I2
saa(lp916
F436.35100623118814
a(dp917
g3
I1454
sg4
I01
sg5
I2
saa(lp918
F436.5208113714873
a(dp919
g3
I7041
sg4
I01
sg5
I2
saa(lp920
F438.98544649160795
a(dp921
g3
I165
sg4
I01
sg5
I2
saa(lp922
F439.5210597736469
a(dp923
g3
I27718
sg4
I01
sg5
I2
saa(lp924
F440.08135370054737
a(dp925
g3
I397
sg4
I01
sg5
I2
saa(lp926
F440.405831793729
a(dp927
g3
I4
sg4
I01
sg5
I2
saa(lp928
F440.7297459082864
a(dp929
g3
I190
sg4
I01
sg5
I2
saa(lp930
F441.5395056047101
a(dp931
g3
I2
sg4
I01
sg5
I2
saa(lp932
F443.27568805747416
a(dp933
g3
I3
sg4
I01
sg5
I2
saa(lp934
F443.2911030344865
a(dp935
g3
I1
sg4
I01
sg5
I2
saa(lp936
F443.6194151240361
a(dp937
g3
I1
sg4
I01
sg5
I2
saa(lp938
F443.72111383899295
a(dp939
g3
I2655
sg4
I01
sg5
I2
saa(lp940
F444.2039254411613
a(dp941
g3
I79515
sg4
I01
sg5
I2
saa(lp942
F444.9431244100198
a(dp943
g3
I74110
sg4
I01
sg5
I2
saa(lp944
F445.77945010358394
a(dp945
g3
I4783
sg4
I01
sg5
I2
saa(lp946
F446.30021440119293
a(dp947
g3
I26438
sg4
I01
sg5
I2
saa(lp948
F447.3171641066007
a(dp949
g3
I44
sg4
I01
sg5
I2
saa(lp950
F448.45520662417493
a(dp951
g3
I24268
sg4
I01
sg5
I2
saa(lp952
F448.77688611895906
a(dp953
g3
I1067
sg4
I01
sg5
I2
saa(lp954
F451.333986768389
a(dp955
g3
I154
sg4
I01
sg5
I2
saa(lp956
F451.92859153699106
a(dp957
g3
I20990
sg4
I01
sg5
I2
saa(lp958
F454.6668577532256
a(dp959
g3
I17
sg4
I01
sg5
I2
saa(lp960
F455.30786579803134
a(dp961
g3
I571
sg4
I01
sg5
I2
saa(lp962
F456.67730576384923
a(dp963
g3
I64
sg4
I01
sg5
I2
saa(lp964
F456.91002185861123
a(dp965
g3
I2
sg4
I01
sg5
I2
saa(lp966
F457.47758916530466
a(dp967
g3
I10413
sg4
I01
sg5
I2
saa(lp968
F457.8362118350311
a(dp969
g3
I183
sg4
I01
sg5
I2
saa(lp970
F458.2302335291947
a(dp971
g3
I6174
sg4
I01
sg5
I2
saa(lp972
F458.44280806990923
a(dp973
g3
I8
sg4
I01
sg5
I2
saa(lp974
F460.57027533158424
a(dp975
g3
I1
sg4
I01
sg5
I2
saa(lp976
F461.4107236229142
a(dp977
g3
I8529
sg4
I01
sg5
I2
saa(lp978
F461.53892563812605
a(dp979
g3
I9
sg4
I01
sg5
I2
saa(lp980
F464.18619834912744
a(dp981
g3
I24
sg4
I01
sg5
I2
saa(lp982
F464.9800401716851
a(dp983
g3
I364
sg4
I01
sg5
I2
saa(lp984
F465.82210062078383
a(dp985
g3
I1240
sg4
I01
sg5
I2
saa(lp986
F466.4033756658806
a(dp987
g3
I5
sg4
I01
sg5
I2
saa(lp988
F466.937747920965
a(dp989
g3
I635
sg4
I01
sg5
I2
saa(lp990
F467.2436747794285
a(dp991
g3
I593
sg4
I01
sg5
I2
saa(lp992
F467.5919010561752
a(dp993
g3
I19075
sg4
I01
sg5
I2
saa(lp994
F468.9676289358729
a(dp995
g3
I1
sg4
I01
sg5
I2
saa(lp996
F469.8831530788422
a(dp997
g3
I53408
sg4
I01
sg5
I2
saa(lp998
F471.029942806548
a(dp999
g3
I708
sg4
I01
sg5
I2
saa(lp1000
F471.9277129146653
a(dp1001
g3
I420
sg4
I01
sg5
I2
saa(lp1002
F472.2355140009693
a(dp1003
g3
I32878
sg4
I01
sg5
I2
saa.