(lp0
(lp1
F1.848182391238215
a(dp2
S'content'
p3
I153
sS'log'
p4
I00
sS'receiver'
p5
I2
saa(lp6
F2.1983835174926205
a(dp7
g3
I2
sg4
I00
sg5
I2
saa(lp8
F3.7980527068677823
a(dp9
g3
I5
sg4
I00
sg5
I2
saa(lp10
F3.875027211466391
a(dp11
g3
I1825
sg4
I00
sg5
I2
saa(lp12
F5.1702398449973215
a(dp13
g3
I4
sg4
I00
sg5
I2
saa(lp14
F5.881914927072836
a(dp15
g3
I88619
sg4
I00
sg5
I2
saa(lp16
F6.070542985591936
a(dp17
g3
I35
sg4
I00
sg5
I2
saa(lp18
F6.937922357169941
a(dp19
g3
I5
sg4
I00
sg5
I2
saa(lp20
F8.244352048572024
a(dp21
g3
I6
sg4
I00
sg5
I2
saa(lp22
F9.5414053113302
a(dp23
g3
I168
sg4
I00
sg5
I2
saa(lp24
F11.024555902055393
a(dp25
g3
I4
sg4
I00
sg5
I2
saa(lp26
F12.983069408856775
a(dp27
g3
I1529
sg4
I00
sg5
I2
saa(lp28
F13.677052781294373
a(dp29
g3
I3707
sg4
I00
sg5
I2
saa(lp30
F15.703736944870522
a(dp31
g3
I209
sg4
I00
sg5
I2
saa(lp32
F15.899162209786137
a(dp33
g3
I1
sg4
I00
sg5
I2
saa(lp34
F16.83789171732566
a(dp35
g3
I40368
sg4
I00
sg5
I2
saa(lp36
F17.58184523271878
a(dp37
g3
I11
sg4
I00
sg5
I2
saa(lp38
F18.09395197204374
a(dp39
g3
I624
sg4
I00
sg5
I2
saa(lp40
F19.22185143861926
a(dp41
g3
I10
sg4
I00
sg5
I2
saa(lp42
F21.398758181804265
a(dp43
g3
I514
sg4
I00
sg5
I2
saa(lp44
F22.608536137805345
a(dp45
g3
I1
sg4
I00
sg5
I2
saa(lp46
F24.584223673391982
a(dp47
g3
I14
sg4
I00
sg5
I2
saa(lp48
F24.851676319425632
a(dp49
g3
I1
sg4
I00
sg5
I2
saa(lp50
F27.323712813058478
a(dp51
g3
I6
sg4
I00
sg5
I2
saa(lp52
F28.374492856925485
a(dp53
g3
I6
sg4
I00
sg5
I2
saa(lp54
F29.580203913267752
a(dp55
g3
I15
sg4
I00
sg5
I2
saa(lp56
F31.2443542588623
a(dp57
g3
I29
sg4
I00
sg5
I2
saa(lp58
F32.00464653500893
a(dp59
g3
I6
sg4
I00
sg5
I2
saa(lp60
F33.74007744058872
a(dp61
g3
I2629
sg4
I00
sg5
I2
saa(lp62
F34.076757278340864
a(dp63
g3
I24
sg4
I00
sg5
I2
saa(lp64
F34.45320857764725
a(dp65
g3
I45022
sg4
I00
sg5
I2
saa(lp66
F35.47711657997991
a(dp67
g3
I218
sg4
I00
sg5
I2
saa(lp68
F35.72543274625355
a(dp69
g3
I159
sg4
I00
sg5
I2
saa(lp70
F36.500735027593855
a(dp71
g3
I3
sg4
I00
sg5
I2
saa(lp72
F36.51935155457231
a(dp73
g3
I687
sg4
I00
sg5
I2
saa(lp74
F38.91246656135984
a(dp75
g3
I561
sg4
I00
sg5
I2
saa(lp76
F40.34331808840256
a(dp77
g3
I14378
sg4
I00
sg5
I2
saa(lp78
F42.437451347274546
a(dp79
g3
I25522
sg4
I00
sg5
I2
saa(lp80
F42.95097842144662
a(dp81
g3
I14787
sg4
I00
sg5
I2
saa(lp82
F44.09413525212164
a(dp83
g3
I7
sg4
I00
sg5
I2
saa(lp84
F45.802662047964006
a(dp85
g3
I1359
sg4
I00
sg5
I2
saa(lp86
F47.53925545588161
a(dp87
g3
I12393
sg4
I00
sg5
I2
saa(lp88
F51.888390811687216
a(dp89
g3
I65
sg4
I00
sg5
I2
saa(lp90
F53.06236833678971
a(dp91
g3
I1
sg4
I00
sg5
I2
saa(lp92
F55.15276726035603
a(dp93
g3
I1
sg4
I00
sg5
I2
saa(lp94
F57.04721879043988
a(dp95
g3
I763
sg4
I00
sg5
I2
saa(lp96
F57.68351679235018
a(dp97
g3
I20
sg4
I00
sg5
I2
saa(lp98
F58.19903413818325
a(dp99
g3
I116
sg4
I00
sg5
I2
saa(lp100
F62.171067418112386
a(dp101
g3
I10938
sg4
I00
sg5
I2
saa(lp102
F62.76914498685688
a(dp103
g3
I63
sg4
I00
sg5
I2
saa(lp104
F63.458559981354014
a(dp105
g3
I6925
sg4
I00
sg5
I2
saa(lp106
F64.83131582829459
a(dp107
g3
I13
sg4
I00
sg5
I2
saa(lp108
F65.03999985055957
a(dp109
g3
I10089
sg4
I00
sg5
I2
saa(lp110
F66.45883685816621
a(dp111
g3
I722
sg4
I00
sg5
I2
saa(lp112
F66.71769149187827
a(dp113
g3
I213
sg4
I00
sg5
I2
saa(lp114
F66.86142379031644
a(dp115
g3
I3978
sg4
I00
sg5
I2
saa(lp116
F67.62206292777478
a(dp117
g3
I25
sg4
I00
sg5
I2
saa(lp118
F68.73140303272434
a(dp119
g3
I267
sg4
I00
sg5
I2
saa(lp120
F69.24153941339635
a(dp121
g3
I3
sg4
I00
sg5
I2
saa(lp122
F69.55914309265172
a(dp123
g3
I64
sg4
I00
sg5
I2
saa(lp124
F70.76179005788816
a(dp125
g3
I44
sg4
I00
sg5
I2
saa(lp126
F71.37194406960842
a(dp127
g3
I26012
sg4
I00
sg5
I2
saa(lp128
F71.65645985400182
a(dp129
g3
I1
sg4
I00
sg5
I2
saa(lp130
F73.64350260923965
a(dp131
g3
I688
sg4
I00
sg5
I2
saa(lp132
F77.92227777872367
a(dp133
g3
I180
sg4
I00
sg5
I2
saa(lp134
F78.6916203163701
a(dp135
g3
I53
sg4
I00
sg5
I2
saa(lp136
F80.57709326130687
a(dp137
g3
I54
sg4
I00
sg5
I2
saa(lp138
F81.59115689684478
a(dp139
g3
I589
sg4
I00
sg5
I2
saa(lp140
F82.44394058077545
a(dp141
g3
I475
sg4
I00
sg5
I2
saa(lp142
F82.74138359777493
a(dp143
g3
I15562
sg4
I00
sg5
I2
saa(lp144
F85.63791874159506
a(dp145
g3
I425
sg4
I00
sg5
I2
saa(lp146
F86.13144590864779
a(dp147
g3
I34
sg4
I00
sg5
I2
saa(lp148
F87.97033358968234
a(dp149
g3
I11
sg4
I00
sg5
I2
saa(lp150
F88.40989971186701
a(dp151
g3
I1
sg4
I00
sg5
I2
saa(lp152
F89.1771304353661
a(dp153
g3
I53853
sg4
I00
sg5
I2
saa(lp154
F91.0325542333669
a(dp155
g3
I120
sg4
I00
sg5
I2
saa(lp156
F92.01321016267055
a(dp157
g3
I64
sg4
I00
sg5
I2
saa(lp158
F93.41584649769824
a(dp159
g3
I2
sg4
I00
sg5
I2
saa(lp160
F93.71995015202707
a(dp161
g3
I709
sg4
I00
sg5
I2
saa(lp162
F93.89743356542293
a(dp163
g3
I245
sg4
I00
sg5
I2
saa(lp164
F95.63837978637117
a(dp165
g3
I3936
sg4
I00
sg5
I2
saa(lp166
F97.00221828649552
a(dp167
g3
I31
sg4
I00
sg5
I2
saa(lp168
F97.05431276751676
a(dp169
g3
I936
sg4
I00
sg5
I2
saa(lp170
F97.06142896263307
a(dp171
g3
I26
sg4
I00
sg5
I2
saa(lp172
F97.72494929651802
a(dp173
g3
I14
sg4
I00
sg5
I2
saa(lp174
F98.52759250090088
a(dp175
g3
I127
sg4
I00
sg5
I2
saa(lp176
F99.20274707652678
a(dp177
g3
I5
sg4
I00
sg5
I2
saa(lp178
F101.91963546827714
a(dp179
g3
I34
sg4
I00
sg5
I2
saa(lp180
F101.97048833587286
a(dp181
g3
I8
sg4
I00
sg5
I2
saa(lp182
F102.05151756653218
a(dp183
g3
I1549
sg4
I00
sg5
I2
saa(lp184
F103.21437332805338
a(dp185
g3
I66
sg4
I00
sg5
I2
saa(lp186
F103.81162433374722
a(dp187
g3
I7
sg4
I00
sg5
I2
saa(lp188
F103.92863210037204
a(dp189
g3
I2
sg4
I00
sg5
I2
saa(lp190
F104.7700494224906
a(dp191
g3
I4
sg4
I00
sg5
I2
saa(lp192
F105.22262158312127
a(dp193
g3
I35864
sg4
I00
sg5
I2
saa(lp194
F106.1038325401969
a(dp195
g3
I19505
sg4
I00
sg5
I2
saa(lp196
F106.24089094827319
a(dp197
g3
I1
sg4
I00
sg5
I2
saa(lp198
F106.35338756094376
a(dp199
g3
I399
sg4
I00
sg5
I2
saa(lp200
F106.50777277384383
a(dp201
g3
I319
sg4
I00
sg5
I2
saa(lp202
F107.00679058905267
a(dp203
g3
I15639
sg4
I00
sg5
I2
saa(lp204
F108.69307933697357
a(dp205
g3
I19
sg4
I01
sg5
I2
saa(lp206
F108.97250636072513
a(dp207
g3
I7
sg4
I01
sg5
I2
saa(lp208
F113.58277361533084
a(dp209
g3
I15535
sg4
I01
sg5
I2
saa(lp210
F116.24185587200164
a(dp211
g3
I157
sg4
I01
sg5
I2
saa(lp212
F116.41969389079425
a(dp213
g3
I20307
sg4
I01
sg5
I2
saa(lp214
F116.64821295378064
a(dp215
g3
I2
sg4
I01
sg5
I2
saa(lp216
F117.04269709882105
a(dp217
g3
I7
sg4
I01
sg5
I2
saa(lp218
F122.06784148447021
a(dp219
g3
I35
sg4
I01
sg5
I2
saa(lp220
F123.3529260570194
a(dp221
g3
I15809
sg4
I01
sg5
I2
saa(lp222
F124.90662980047207
a(dp223
g3
I4084
sg4
I01
sg5
I2
saa(lp224
F124.96658106974559
a(dp225
g3
I34139
sg4
I01
sg5
I2
saa(lp226
F128.71439753089933
a(dp227
g3
I8569
sg4
I01
sg5
I2
saa(lp228
F129.39045545367537
a(dp229
g3
I57756
sg4
I01
sg5
I2
saa(lp230
F129.59050411914927
a(dp231
g3
I1
sg4
I01
sg5
I2
saa(lp232
F129.60969312793202
a(dp233
g3
I15
sg4
I01
sg5
I2
saa(lp234
F129.6275712196277
a(dp235
g3
I395
sg4
I01
sg5
I2
saa(lp236
F130.54781456098604
a(dp237
g3
I73
sg4
I01
sg5
I2
saa(lp238
F131.6900175972634
a(dp239
g3
I41189
sg4
I01
sg5
I2
saa(lp240
F132.23510760134008
a(dp241
g3
I19
sg4
I01
sg5
I2
saa(lp242
F132.45078632609798
a(dp243
g3
I2530
sg4
I01
sg5
I2
saa(lp244
F133.16882758902887
a(dp245
g3
I48729
sg4
I01
sg5
I2
saa(lp246
F133.88070901430333
a(dp247
g3
I131
sg4
I01
sg5
I2
saa(lp248
F133.95461783144628
a(dp249
g3
I2
sg4
I01
sg5
I2
saa(lp250
F135.34585773548213
a(dp251
g3
I2295
sg4
I01
sg5
I2
saa(lp252
F135.43759385052053
a(dp253
g3
I5
sg4
I01
sg5
I2
saa(lp254
F136.02606922925574
a(dp255
g3
I71279
sg4
I01
sg5
I2
saa(lp256
F139.06110469572218
a(dp257
g3
I27
sg4
I01
sg5
I2
saa(lp258
F139.85763465136503
a(dp259
g3
I434
sg4
I01
sg5
I2
saa(lp260
F139.98327662556227
a(dp261
g3
I14
sg4
I01
sg5
I2
saa(lp262
F140.1732023455789
a(dp263
g3
I19218
sg4
I01
sg5
I2
saa(lp264
F140.60258075500155
a(dp265
g3
I5
sg4
I01
sg5
I2
saa(lp266
F141.62901165379597
a(dp267
g3
I336
sg4
I01
sg5
I2
saa(lp268
F142.52127132791665
a(dp269
g3
I1099
sg4
I01
sg5
I2
saa(lp270
F142.74670398754043
a(dp271
g3
I2
sg4
I01
sg5
I2
saa(lp272
F142.82374016194643
a(dp273
g3
I12640
sg4
I01
sg5
I2
saa(lp274
F145.22990306229335
a(dp275
g3
I1954
sg4
I01
sg5
I2
saa(lp276
F146.64822886967653
a(dp277
g3
I832
sg4
I01
sg5
I2
saa(lp278
F147.01440929166407
a(dp279
g3
I109
sg4
I01
sg5
I2
saa(lp280
F147.4399271450554
a(dp281
g3
I4
sg4
I01
sg5
I2
saa(lp282
F147.47595750006982
a(dp283
g3
I13250
sg4
I01
sg5
I2
saa(lp284
F147.79086452263496
a(dp285
g3
I1432
sg4
I01
sg5
I2
saa(lp286
F147.898877179567
a(dp287
g3
I712
sg4
I01
sg5
I2
saa(lp288
F148.16819646481306
a(dp289
g3
I31180
sg4
I01
sg5
I2
saa(lp290
F149.06904526374615
a(dp291
g3
I25364
sg4
I01
sg5
I2
saa(lp292
F150.89937570677316
a(dp293
g3
I1
sg4
I01
sg5
I2
saa(lp294
F154.64267961612882
a(dp295
g3
I318
sg4
I01
sg5
I2
saa(lp296
F154.77970636654902
a(dp297
g3
I6069
sg4
I01
sg5
I2
saa(lp298
F154.8363155573829
a(dp299
g3
I39
sg4
I01
sg5
I2
saa(lp300
F156.94462972674503
a(dp301
g3
I443
sg4
I01
sg5
I2
saa(lp302
F158.03015085116152
a(dp303
g3
I16
sg4
I01
sg5
I2
saa(lp304
F160.51159374011863
a(dp305
g3
I6
sg4
I01
sg5
I2
saa(lp306
F162.00313426548496
a(dp307
g3
I30
sg4
I01
sg5
I2
saa(lp308
F162.13711168891638
a(dp309
g3
I1733
sg4
I01
sg5
I2
saa(lp310
F163.72922952182014
a(dp311
g3
I227
sg4
I01
sg5
I2
saa(lp312
F165.21459934509704
a(dp313
g3
I9826
sg4
I01
sg5
I2
saa(lp314
F166.41277895839968
a(dp315
g3
I897
sg4
I01
sg5
I2
saa(lp316
F166.88502487990712
a(dp317
g3
I252
sg4
I01
sg5
I2
saa(lp318
F167.0136744267363
a(dp319
g3
I57091
sg4
I01
sg5
I2
saa(lp320
F167.16691802350047
a(dp321
g3
I421
sg4
I01
sg5
I2
saa(lp322
F169.02292372878895
a(dp323
g3
I214
sg4
I01
sg5
I2
saa(lp324
F169.33629654631764
a(dp325
g3
I575
sg4
I01
sg5
I2
saa(lp326
F170.03467517036674
a(dp327
g3
I7
sg4
I01
sg5
I2
saa(lp328
F172.48956630031955
a(dp329
g3
I2
sg4
I01
sg5
I2
saa(lp330
F173.78594458566073
a(dp331
g3
I52020
sg4
I01
sg5
I2
saa(lp332
F174.3969501130912
a(dp333
g3
I41436
sg4
I01
sg5
I2
saa(lp334
F176.57133696894488
a(dp335
g3
I69
sg4
I01
sg5
I2
saa(lp336
F177.55350726381545
a(dp337
g3
I96
sg4
I01
sg5
I2
saa(lp338
F178.6863592759809
a(dp339
g3
I2230
sg4
I01
sg5
I2
saa(lp340
F179.26654012606738
a(dp341
g3
I436
sg4
I01
sg5
I2
saa(lp342
F179.99217617558764
a(dp343
g3
I5
sg4
I01
sg5
I2
saa(lp344
F180.62088266074392
a(dp345
g3
I97069
sg4
I01
sg5
I2
saa(lp346
F181.386601138893
a(dp347
g3
I24
sg4
I01
sg5
I2
saa(lp348
F183.63305572088322
a(dp349
g3
I66290
sg4
I01
sg5
I2
saa(lp350
F185.21423892308812
a(dp351
g3
I66
sg4
I01
sg5
I2
saa(lp352
F185.90174849954448
a(dp353
g3
I477
sg4
I01
sg5
I2
saa(lp354
F186.14715619652415
a(dp355
g3
I2
sg4
I01
sg5
I2
saa(lp356
F186.44402645142054
a(dp357
g3
I1123
sg4
I01
sg5
I2
saa(lp358
F186.68058319678235
a(dp359
g3
I32990
sg4
I01
sg5
I2
saa(lp360
F188.62424485185588
a(dp361
g3
I1346
sg4
I01
sg5
I2
saa(lp362
F188.66106265384536
a(dp363
g3
I7335
sg4
I01
sg5
I2
saa(lp364
F188.77588707659723
a(dp365
g3
I12310
sg4
I01
sg5
I2
saa(lp366
F190.96688839920267
a(dp367
g3
I85
sg4
I01
sg5
I2
saa(lp368
F192.82790315275238
a(dp369
g3
I7602
sg4
I01
sg5
I2
saa(lp370
F193.18641392248736
a(dp371
g3
I98
sg4
I01
sg5
I2
saa(lp372
F194.4075791675303
a(dp373
g3
I687
sg4
I01
sg5
I2
saa(lp374
F195.84050124778372
a(dp375
g3
I2
sg4
I01
sg5
I2
saa(lp376
F196.12818567081382
a(dp377
g3
I37
sg4
I01
sg5
I2
saa(lp378
F197.5746699821479
a(dp379
g3
I41432
sg4
I01
sg5
I2
saa(lp380
F198.851871579438
a(dp381
g3
I11971
sg4
I01
sg5
I2
saa(lp382
F200.31060203289678
a(dp383
g3
I228
sg4
I01
sg5
I2
saa(lp384
F202.4331891709121
a(dp385
g3
I11948
sg4
I01
sg5
I2
saa(lp386
F203.11807697902776
a(dp387
g3
I50933
sg4
I01
sg5
I2
saa(lp388
F203.80596255441316
a(dp389
g3
I59
sg4
I01
sg5
I2
saa(lp390
F204.16068675671985
a(dp391
g3
I20
sg4
I01
sg5
I2
saa(lp392
F204.88100805739512
a(dp393
g3
I46119
sg4
I01
sg5
I2
saa(lp394
F205.40625067646747
a(dp395
g3
I3507
sg4
I01
sg5
I2
saa(lp396
F207.4108923422896
a(dp397
g3
I1
sg4
I01
sg5
I2
saa(lp398
F207.5553709439836
a(dp399
g3
I22
sg4
I01
sg5
I2
saa(lp400
F208.412185390948
a(dp401
g3
I28065
sg4
I01
sg5
I2
saa(lp402
F209.67716909665393
a(dp403
g3
I15
sg4
I01
sg5
I2
saa(lp404
F209.9952159782815
a(dp405
g3
I59786
sg4
I01
sg5
I2
saa(lp406
F210.06749442467625
a(dp407
g3
I57769
sg4
I01
sg5
I2
saa(lp408
F210.4067882178848
a(dp409
g3
I1
sg4
I01
sg5
I2
saa(lp410
F210.7171427050081
a(dp411
g3
I3
sg4
I01
sg5
I2
saa(lp412
F213.16840848127404
a(dp413
g3
I2
sg4
I01
sg5
I2
saa(lp414
F213.9132605164679
a(dp415
g3
I3225
sg4
I01
sg5
I2
saa(lp416
F215.0427706222155
a(dp417
g3
I381
sg4
I01
sg5
I2
saa(lp418
F215.6991760248769
a(dp419
g3
I12505
sg4
I01
sg5
I2
saa(lp420
F216.2015888874507
a(dp421
g3
I5390
sg4
I01
sg5
I2
saa(lp422
F216.5802996072909
a(dp423
g3
I54
sg4
I01
sg5
I2
saa(lp424
F217.07815826936448
a(dp425
g3
I25698
sg4
I01
sg5
I2
saa(lp426
F218.19605594507408
a(dp427
g3
I2323
sg4
I01
sg5
I2
saa(lp428
F219.30890499361723
a(dp429
g3
I16
sg4
I01
sg5
I2
saa(lp430
F219.34341581408904
a(dp431
g3
I48532
sg4
I01
sg5
I2
saa(lp432
F220.27024259604133
a(dp433
g3
I35
sg4
I01
sg5
I2
saa(lp434
F221.08693851248918
a(dp435
g3
I232
sg4
I01
sg5
I2
saa(lp436
F222.14970186355066
a(dp437
g3
I2
sg4
I01
sg5
I2
saa(lp438
F222.30769008745185
a(dp439
g3
I64633
sg4
I01
sg5
I2
saa(lp440
F222.72478329293236
a(dp441
g3
I35853
sg4
I01
sg5
I2
saa(lp442
F222.77709550077844
a(dp443
g3
I6
sg4
I01
sg5
I2
saa(lp444
F223.48258207555594
a(dp445
g3
I32
sg4
I01
sg5
I2
saa(lp446
F223.95709638136543
a(dp447
g3
I14082
sg4
I01
sg5
I2
saa(lp448
F229.66260823546023
a(dp449
g3
I1
sg4
I01
sg5
I2
saa(lp450
F230.89138600252227
a(dp451
g3
I244
sg4
I01
sg5
I2
saa(lp452
F232.8867029285602
a(dp453
g3
I655
sg4
I01
sg5
I2
saa(lp454
F233.16133807379026
a(dp455
g3
I11
sg4
I01
sg5
I2
saa(lp456
F233.69032188544548
a(dp457
g3
I6497
sg4
I01
sg5
I2
saa(lp458
F234.21120675795655
a(dp459
g3
I29816
sg4
I01
sg5
I2
saa(lp460
F234.92434070501938
a(dp461
g3
I224
sg4
I01
sg5
I2
saa(lp462
F235.32664053613485
a(dp463
g3
I2
sg4
I01
sg5
I2
saa(lp464
F236.7326908435771
a(dp465
g3
I2134
sg4
I01
sg5
I2
saa(lp466
F236.79612764677992
a(dp467
g3
I52957
sg4
I01
sg5
I2
saa(lp468
F236.86138757692564
a(dp469
g3
I70501
sg4
I01
sg5
I2
saa(lp470
F240.46772439710188
a(dp471
g3
I12
sg4
I01
sg5
I2
saa(lp472
F240.6447693242916
a(dp473
g3
I1714
sg4
I01
sg5
I2
saa(lp474
F241.70460517152398
a(dp475
g3
I9440
sg4
I01
sg5
I2
saa(lp476
F242.4911825832918
a(dp477
g3
I2432
sg4
I01
sg5
I2
saa(lp478
F243.28536878973995
a(dp479
g3
I4
sg4
I01
sg5
I2
saa(lp480
F243.9581165850817
a(dp481
g3
I57590
sg4
I01
sg5
I2
saa(lp482
F244.0076603439649
a(dp483
g3
I4378
sg4
I01
sg5
I2
saa(lp484
F244.62649854455213
a(dp485
g3
I1074
sg4
I01
sg5
I2
saa(lp486
F245.97708270742547
a(dp487
g3
I95
sg4
I01
sg5
I2
saa(lp488
F246.53564557398303
a(dp489
g3
I1
sg4
I01
sg5
I2
saa(lp490
F247.57597306271046
a(dp491
g3
I71906
sg4
I01
sg5
I2
saa(lp492
F250.23443977399856
a(dp493
g3
I1
sg4
I01
sg5
I2
saa(lp494
F250.2991386923843
a(dp495
g3
I30038
sg4
I01
sg5
I2
saa(lp496
F251.3564947300162
a(dp497
g3
I38
sg4
I01
sg5
I2
saa(lp498
F251.5867161662383
a(dp499
g3
I18448
sg4
I01
sg5
I2
saa(lp500
F254.09200412709487
a(dp501
g3
I1
sg4
I01
sg5
I2
saa(lp502
F254.18382877080643
a(dp503
g3
I1
sg4
I01
sg5
I2
saa(lp504
F255.87806890530953
a(dp505
g3
I19574
sg4
I01
sg5
I2
saa(lp506
F257.8737926476992
a(dp507
g3
I482
sg4
I01
sg5
I2
saa(lp508
F260.8035339134295
a(dp509
g3
I199
sg4
I01
sg5
I2
saa(lp510
F262.22149995718553
a(dp511
g3
I1
sg4
I01
sg5
I2
saa(lp512
F262.93954864768415
a(dp513
g3
I1751
sg4
I01
sg5
I2
saa(lp514
F263.9065468251137
a(dp515
g3
I1109
sg4
I01
sg5
I2
saa(lp516
F264.9272908395479
a(dp517
g3
I134
sg4
I01
sg5
I2
saa(lp518
F265.82325958750056
a(dp519
g3
I1618
sg4
I01
sg5
I2
saa(lp520
F266.6665965002987
a(dp521
g3
I49
sg4
I01
sg5
I2
saa(lp522
F268.50204096594825
a(dp523
g3
I6682
sg4
I01
sg5
I2
saa(lp524
F269.61714540744333
a(dp525
g3
I270
sg4
I01
sg5
I2
saa(lp526
F269.7339247633572
a(dp527
g3
I1
sg4
I01
sg5
I2
saa(lp528
F270.1059400305243
a(dp529
g3
I5
sg4
I01
sg5
I2
saa(lp530
F271.8463871202558
a(dp531
g3
I41
sg4
I01
sg5
I2
saa(lp532
F272.29401193608714
a(dp533
g3
I2
sg4
I01
sg5
I2
saa(lp534
F273.47446662835125
a(dp535
g3
I57119
sg4
I01
sg5
I2
saa(lp536
F274.3311527529311
a(dp537
g3
I31824
sg4
I01
sg5
I2
saa(lp538
F274.50712194008946
a(dp539
g3
I5937
sg4
I01
sg5
I2
saa(lp540
F275.80724266855515
a(dp541
g3
I8207
sg4
I01
sg5
I2
saa(lp542
F276.49916960356273
a(dp543
g3
I1333
sg4
I01
sg5
I2
saa(lp544
F276.7812674502331
a(dp545
g3
I3091
sg4
I01
sg5
I2
saa(lp546
F277.58689554329646
a(dp547
g3
I36
sg4
I01
sg5
I2
saa(lp548
F277.7332138859398
a(dp549
g3
I184
sg4
I01
sg5
I2
saa(lp550
F279.1874741359539
a(dp551
g3
I940
sg4
I01
sg5
I2
saa(lp552
F281.211807582204
a(dp553
g3
I77
sg4
I01
sg5
I2
saa(lp554
F283.00603522417623
a(dp555
g3
I14156
sg4
I01
sg5
I2
saa(lp556
F283.43362433551005
a(dp557
g3
I70292
sg4
I01
sg5
I2
saa(lp558
F283.62278881878456
a(dp559
g3
I3
sg4
I01
sg5
I2
saa(lp560
F285.5403775363217
a(dp561
g3
I3
sg4
I01
sg5
I2
saa(lp562
F285.6510846748578
a(dp563
g3
I134
sg4
I01
sg5
I2
saa(lp564
F285.8008242268913
a(dp565
g3
I32
sg4
I01
sg5
I2
saa(lp566
F286.9427585510722
a(dp567
g3
I47
sg4
I01
sg5
I2
saa(lp568
F287.4421432844899
a(dp569
g3
I2
sg4
I01
sg5
I2
saa(lp570
F287.8791129774204
a(dp571
g3
I298
sg4
I01
sg5
I2
saa(lp572
F288.80770680994345
a(dp573
g3
I4
sg4
I01
sg5
I2
saa(lp574
F289.6867431443135
a(dp575
g3
I10490
sg4
I01
sg5
I2
saa(lp576
F290.4177951927145
a(dp577
g3
I659
sg4
I01
sg5
I2
saa(lp578
F292.40765440771065
a(dp579
g3
I2782
sg4
I01
sg5
I2
saa(lp580
F292.45026898938505
a(dp581
g3
I1
sg4
I01
sg5
I2
saa(lp582
F292.5846718561059
a(dp583
g3
I7633
sg4
I01
sg5
I2
saa(lp584
F299.83879604624525
a(dp585
g3
I3875
sg4
I01
sg5
I2
saa(lp586
F300.0644346965487
a(dp587
g3
I289
sg4
I01
sg5
I2
saa(lp588
F302.8944817137295
a(dp589
g3
I113
sg4
I01
sg5
I2
saa(lp590
F303.48011390523453
a(dp591
g3
I1536
sg4
I01
sg5
I2
saa(lp592
F304.03949210493545
a(dp593
g3
I1
sg4
I01
sg5
I2
saa(lp594
F304.18586529508946
a(dp595
g3
I39
sg4
I01
sg5
I2
saa(lp596
F304.73824964076476
a(dp597
g3
I49119
sg4
I01
sg5
I2
saa(lp598
F305.1895661308388
a(dp599
g3
I112
sg4
I01
sg5
I2
saa(lp600
F307.75383895844345
a(dp601
g3
I8
sg4
I01
sg5
I2
saa(lp602
F308.38731772186827
a(dp603
g3
I1036
sg4
I01
sg5
I2
saa(lp604
F308.66507766009227
a(dp605
g3
I58535
sg4
I01
sg5
I2
saa(lp606
F308.6797513703035
a(dp607
g3
I31
sg4
I01
sg5
I2
saa(lp608
F309.60564935503834
a(dp609
g3
I41490
sg4
I01
sg5
I2
saa(lp610
F310.61138254777234
a(dp611
g3
I21981
sg4
I01
sg5
I2
saa(lp612
F311.126195687964
a(dp613
g3
I55
sg4
I01
sg5
I2
saa(lp614
F311.1709610989129
a(dp615
g3
I2
sg4
I01
sg5
I2
saa(lp616
F311.5734524240435
a(dp617
g3
I934
sg4
I01
sg5
I2
saa(lp618
F312.49037111567935
a(dp619
g3
I88
sg4
I01
sg5
I2
saa(lp620
F313.2661045817725
a(dp621
g3
I26
sg4
I01
sg5
I2
saa(lp622
F316.0212433600579
a(dp623
g3
I5
sg4
I01
sg5
I2
saa(lp624
F316.26956925965095
a(dp625
g3
I67711
sg4
I01
sg5
I2
saa(lp626
F319.98746227597286
a(dp627
g3
I30
sg4
I01
sg5
I2
saa(lp628
F320.82856992865567
a(dp629
g3
I2372
sg4
I01
sg5
I2
saa(lp630
F321.0641129563014
a(dp631
g3
I357
sg4
I01
sg5
I2
saa(lp632
F321.8976747592939
a(dp633
g3
I98
sg4
I01
sg5
I2
saa(lp634
F325.00735773480113
a(dp635
g3
I106
sg4
I01
sg5
I2
saa(lp636
F325.0509374444324
a(dp637
g3
I15
sg4
I01
sg5
I2
saa(lp638
F327.85809675694185
a(dp639
g3
I57021
sg4
I01
sg5
I2
saa(lp640
F335.72784247528654
a(dp641
g3
I1
sg4
I01
sg5
I2
saa(lp642
F336.2068207354119
a(dp643
g3
I111
sg4
I01
sg5
I2
saa(lp644
F336.31712653180006
a(dp645
g3
I18
sg4
I01
sg5
I2
saa(lp646
F336.70218476055317
a(dp647
g3
I541
sg4
I01
sg5
I2
saa(lp648
F338.09100247714423
a(dp649
g3
I3
sg4
I01
sg5
I2
saa(lp650
F338.1971387609409
a(dp651
g3
I1
sg4
I01
sg5
I2
saa(lp652
F338.40758017465595
a(dp653
g3
I82621
sg4
I01
sg5
I2
saa(lp654
F339.65838182548555
a(dp655
g3
I2076
sg4
I01
sg5
I2
saa(lp656
F340.7841472458962
a(dp657
g3
I45992
sg4
I01
sg5
I2
saa(lp658
F342.33789761916984
a(dp659
g3
I71880
sg4
I01
sg5
I2
saa(lp660
F342.93969142026486
a(dp661
g3
I116
sg4
I01
sg5
I2
saa(lp662
F342.98874079438207
a(dp663
g3
I7
sg4
I01
sg5
I2
saa(lp664
F343.7249572304517
a(dp665
g3
I365
sg4
I01
sg5
I2
saa(lp666
F344.3579374436314
a(dp667
g3
I3
sg4
I01
sg5
I2
saa(lp668
F344.36847351305437
a(dp669
g3
I13381
sg4
I01
sg5
I2
saa(lp670
F345.1091137005473
a(dp671
g3
I111
sg4
I01
sg5
I2
saa(lp672
F345.32571603303427
a(dp673
g3
I1
sg4
I01
sg5
I2
saa(lp674
F345.5985078089139
a(dp675
g3
I1965
sg4
I01
sg5
I2
saa(lp676
F346.081489372442
a(dp677
g3
I1
sg4
I01
sg5
I2
saa(lp678
F346.67844909067134
a(dp679
g3
I36
sg4
I01
sg5
I2
saa(lp680
F348.9255263770046
a(dp681
g3
I44
sg4
I01
sg5
I2
saa(lp682
F350.7659437613839
a(dp683
g3
I409
sg4
I01
sg5
I2
saa(lp684
F351.0834727698757
a(dp685
g3
I25006
sg4
I01
sg5
I2
saa(lp686
F353.08787718577975
a(dp687
g3
I3
sg4
I01
sg5
I2
saa(lp688
F353.66164702576555
a(dp689
g3
I472
sg4
I01
sg5
I2
saa(lp690
F355.902624792928
a(dp691
g3
I25
sg4
I01
sg5
I2
saa(lp692
F356.59814030368426
a(dp693
g3
I1428
sg4
I01
sg5
I2
saa(lp694
F360.84634080508147
a(dp695
g3
I436
sg4
I01
sg5
I2
saa(lp696
F361.73932387806417
a(dp697
g3
I2
sg4
I01
sg5
I2
saa(lp698
F362.6825222825838
a(dp699
g3
I17344
sg4
I01
sg5
I2
saa(lp700
F363.0588749123226
a(dp701
g3
I2840
sg4
I01
sg5
I2
saa(lp702
F363.3266676331853
a(dp703
g3
I10702
sg4
I01
sg5
I2
saa(lp704
F364.69623919930325
a(dp705
g3
I1
sg4
I01
sg5
I2
saa(lp706
F365.2716547597952
a(dp707
g3
I224
sg4
I01
sg5
I2
saa(lp708
F365.628135594711
a(dp709
g3
I17046
sg4
I01
sg5
I2
saa(lp710
F367.70230099803564
a(dp711
g3
I19688
sg4
I01
sg5
I2
saa(lp712
F368.19734639467924
a(dp713
g3
I17837
sg4
I01
sg5
I2
saa(lp714
F370.24498846580605
a(dp715
g3
I19
sg4
I01
sg5
I2
saa(lp716
F371.03268217781397
a(dp717
g3
I26675
sg4
I01
sg5
I2
saa(lp718
F374.8311178640652
a(dp719
g3
I4
sg4
I01
sg5
I2
saa(lp720
F375.3629950300101
a(dp721
g3
I2
sg4
I01
sg5
I2
saa(lp722
F375.6409408668981
a(dp723
g3
I5285
sg4
I01
sg5
I2
saa(lp724
F376.4652588303558
a(dp725
g3
I3
sg4
I01
sg5
I2
saa(lp726
F376.5037171845625
a(dp727
g3
I34339
sg4
I01
sg5
I2
saa(lp728
F377.2294054125306
a(dp729
g3
I7898
sg4
I01
sg5
I2
saa(lp730
F377.49219566137407
a(dp731
g3
I117
sg4
I01
sg5
I2
saa(lp732
F381.4958089338373
a(dp733
g3
I1
sg4
I01
sg5
I2
saa(lp734
F381.93482495307984
a(dp735
g3
I51
sg4
I01
sg5
I2
saa(lp736
F383.23109977017936
a(dp737
g3
I2
sg4
I01
sg5
I2
saa(lp738
F386.9238533590184
a(dp739
g3
I110
sg4
I01
sg5
I2
saa(lp740
F386.9674745690478
a(dp741
g3
I374
sg4
I01
sg5
I2
saa(lp742
F390.55737317218205
a(dp743
g3
I13
sg4
I01
sg5
I2
saa(lp744
F390.90759516809925
a(dp745
g3
I68
sg4
I01
sg5
I2
saa(lp746
F392.89360086242846
a(dp747
g3
I1436
sg4
I01
sg5
I2
saa(lp748
F393.1065559959277
a(dp749
g3
I46147
sg4
I01
sg5
I2
saa(lp750
F394.2651007112551
a(dp751
g3
I293
sg4
I01
sg5
I2
saa(lp752
F394.64548127823537
a(dp753
g3
I30060
sg4
I01
sg5
I2
saa(lp754
F397.3648931121109
a(dp755
g3
I85916
sg4
I01
sg5
I2
saa(lp756
F397.71352656703465
a(dp757
g3
I2
sg4
I01
sg5
I2
saa(lp758
F398.1728189846226
a(dp759
g3
I76
sg4
I01
sg5
I2
saa(lp760
F399.81688929427384
a(dp761
g3
I1392
sg4
I01
sg5
I2
saa(lp762
F399.99413183414606
a(dp763
g3
I4
sg4
I01
sg5
I2
saa(lp764
F401.84066461963266
a(dp765
g3
I74374
sg4
I01
sg5
I2
saa(lp766
F403.0839876780543
a(dp767
g3
I85203
sg4
I01
sg5
I2
saa(lp768
F403.4781188381084
a(dp769
g3
I152
sg4
I01
sg5
I2
saa(lp770
F403.49823740105717
a(dp771
g3
I22170
sg4
I01
sg5
I2
saa(lp772
F403.98906064813355
a(dp773
g3
I6262
sg4
I01
sg5
I2
saa(lp774
F404.069665978208
a(dp775
g3
I65
sg4
I01
sg5
I2
saa(lp776
F404.54061875448207
a(dp777
g3
I917
sg4
I01
sg5
I2
saa(lp778
F406.1972076347697
a(dp779
g3
I4018
sg4
I01
sg5
I2
saa(lp780
F406.36658361045477
a(dp781
g3
I15
sg4
I01
sg5
I2
saa(lp782
F406.7755986010803
a(dp783
g3
I263
sg4
I01
sg5
I2
saa(lp784
F408.2392612729616
a(dp785
g3
I127
sg4
I01
sg5
I2
saa(lp786
F409.11390668934354
a(dp787
g3
I27167
sg4
I01
sg5
I2
saa(lp788
F410.8034054627367
a(dp789
g3
I220
sg4
I01
sg5
I2
saa(lp790
F411.38969785494396
a(dp791
g3
I6
sg4
I01
sg5
I2
saa(lp792
F413.4652887060518
a(dp793
g3
I11
sg4
I01
sg5
I2
saa(lp794
F413.6176119410319
a(dp795
g3
I3633
sg4
I01
sg5
I2
saa(lp796
F414.18584555442396
a(dp797
g3
I44384
sg4
I01
sg5
I2
saa(lp798
F414.77091977981536
a(dp799
g3
I10123
sg4
I01
sg5
I2
saa(lp800
F415.3715503598247
a(dp801
g3
I12
sg4
I01
sg5
I2
saa(lp802
F415.66683537106405
a(dp803
g3
I16
sg4
I01
sg5
I2
saa(lp804
F416.2180967714297
a(dp805
g3
I22
sg4
I01
sg5
I2
saa(lp806
F417.9218322898058
a(dp807
g3
I7896
sg4
I01
sg5
I2
saa(lp808
F418.33327120006663
a(dp809
g3
I114
sg4
I01
sg5
I2
saa(lp810
F420.23650492560085
a(dp811
g3
I3
sg4
I01
sg5
I2
saa(lp812
F421.1270117740825
a(dp813
g3
I33706
sg4
I01
sg5
I2
saa(lp814
F421.90738348549803
a(dp815
g3
I518
sg4
I01
sg5
I2
saa(lp816
F423.9908608744258
a(dp817
g3
I15
sg4
I01
sg5
I2
saa(lp818
F424.35460766614466
a(dp819
g3
I54
sg4
I01
sg5
I2
saa(lp820
F425.37524396186996
a(dp821
g3
I204
sg4
I01
sg5
I2
saa(lp822
F425.73094301665583
a(dp823
g3
I10
sg4
I01
sg5
I2
saa(lp824
F426.9135832198155
a(dp825
g3
I5
sg4
I01
sg5
I2
saa(lp826
F426.93330010314236
a(dp827
g3
I99774
sg4
I01
sg5
I2
saa(lp828
F427.743226761221
a(dp829
g3
I19500
sg4
I01
sg5
I2
saa(lp830
F429.7211995821087
a(dp831
g3
I109
sg4
I01
sg5
I2
saa(lp832
F430.74131349505103
a(dp833
g3
I19
sg4
I01
sg5
I2
saa(lp834
F431.1508057446308
a(dp835
g3
I2659
sg4
I01
sg5
I2
saa(lp836
F432.59839452671713
a(dp837
g3
I366
sg4
I01
sg5
I2
saa(lp838
F432.9583105481094
a(dp839
g3
I2
sg4
I01
sg5
I2
saa(lp840
F432.9583865736781
a(dp841
g3
I1
sg4
I01
sg5
I2
saa(lp842
F433.59967339673074
a(dp843
g3
I16448
sg4
I01
sg5
I2
saa(lp844
F433.8286546649526
a(dp845
g3
I2
sg4
I01
sg5
I2
saa(lp846
F433.9400557828566
a(dp847
g3
I867
sg4
I01
sg5
I2
saa(lp848
F435.32145916280643
a(dp849
g3
I16715
sg4
I01
sg5
I2
saa(lp850
F435.5378729053618
a(dp851
g3
I5
sg4
I01
sg5
I2
saa(lp852
F437.24380678725834
a(dp853
g3
I2
sg4
I01
sg5
I2
saa(lp854
F438.2599306614208
a(dp855
g3
I48
sg4
I01
sg5
I2
saa(lp856
F438.2981202690495
a(dp857
g3
I3
sg4
I01
sg5
I2
saa(lp858
F439.39088202202373
a(dp859
g3
I9625
sg4
I01
sg5
I2
saa(lp860
F439.4082701387414
a(dp861
g3
I48
sg4
I01
sg5
I2
saa(lp862
F440.71079217679335
a(dp863
g3
I6819
sg4
I01
sg5
I2
saa(lp864
F443.7088335737007
a(dp865
g3
I1439
sg4
I01
sg5
I2
saa(lp866
F450.5543820102876
a(dp867
g3
I1206
sg4
I01
sg5
I2
saa(lp868
F452.9949304818081
a(dp869
g3
I41
sg4
I01
sg5
I2
saa(lp870
F453.1706934302016
a(dp871
g3
I5
sg4
I01
sg5
I2
saa(lp872
F453.40709966069653
a(dp873
g3
I236
sg4
I01
sg5
I2
saa(lp874
F454.33921963605565
a(dp875
g3
I28288
sg4
I01
sg5
I2
saa(lp876
F454.5543227526846
a(dp877
g3
I821
sg4
I01
sg5
I2
saa(lp878
F454.73526470130815
a(dp879
g3
I200
sg4
I01
sg5
I2
saa(lp880
F455.08526334589584
a(dp881
g3
I471
sg4
I01
sg5
I2
saa(lp882
F455.2368806159615
a(dp883
g3
I5
sg4
I01
sg5
I2
saa(lp884
F455.44337654607443
a(dp885
g3
I2
sg4
I01
sg5
I2
saa(lp886
F455.710208744081
a(dp887
g3
I1
sg4
I01
sg5
I2
saa(lp888
F456.60316516675056
a(dp889
g3
I92
sg4
I01
sg5
I2
saa(lp890
F459.6712473302499
a(dp891
g3
I7854
sg4
I01
sg5
I2
saa(lp892
F460.3429033069922
a(dp893
g3
I38
sg4
I01
sg5
I2
saa(lp894
F462.280116610944
a(dp895
g3
I20172
sg4
I01
sg5
I2
saa(lp896
F462.52821077976813
a(dp897
g3
I1
sg4
I01
sg5
I2
saa(lp898
F462.7998079516638
a(dp899
g3
I1
sg4
I01
sg5
I2
saa(lp900
F462.8756958133115
a(dp901
g3
I218
sg4
I01
sg5
I2
saa(lp902
F463.1239011818647
a(dp903
g3
I6
sg4
I01
sg5
I2
saa(lp904
F466.6138104013306
a(dp905
g3
I67469
sg4
I01
sg5
I2
saa(lp906
F468.1180776827644
a(dp907
g3
I12348
sg4
I01
sg5
I2
saa(lp908
F470.1481072775851
a(dp909
g3
I170
sg4
I01
sg5
I2
saa(lp910
F471.82442987041685
a(dp911
g3
I7
sg4
I01
sg5
I2
saa(lp912
F473.19346737242256
a(dp913
g3
I134
sg4
I01
sg5
I2
saa(lp914
F476.50229213235787
a(dp915
g3
I954
sg4
I01
sg5
I2
saa(lp916
F476.6444748811679
a(dp917
g3
I50
sg4
I01
sg5
I2
saa(lp918
F477.13198762395166
a(dp919
g3
I2486
sg4
I01
sg5
I2
saa(lp920
F477.31838861693143
a(dp921
g3
I1
sg4
I01
sg5
I2
saa(lp922
F477.32624429373203
a(dp923
g3
I20803
sg4
I01
sg5
I2
saa(lp924
F477.9667598357533
a(dp925
g3
I934
sg4
I01
sg5
I2
saa(lp926
F478.4631713542234
a(dp927
g3
I28117
sg4
I01
sg5
I2
saa(lp928
F479.92634321801756
a(dp929
g3
I150
sg4
I01
sg5
I2
saa(lp930
F480.58204863222295
a(dp931
g3
I1
sg4
I01
sg5
I2
saa(lp932
F480.60504850263067
a(dp933
g3
I29082
sg4
I01
sg5
I2
saa(lp934
F480.8099451941882
a(dp935
g3
I34107
sg4
I01
sg5
I2
saa(lp936
F481.1916734215315
a(dp937
g3
I51
sg4
I01
sg5
I2
saa(lp938
F481.4696994871631
a(dp939
g3
I19
sg4
I01
sg5
I2
saa(lp940
F485.63724576292896
a(dp941
g3
I754
sg4
I01
sg5
I2
saa(lp942
F486.4319007859544
a(dp943
g3
I331
sg4
I01
sg5
I2
saa(lp944
F489.01247194206263
a(dp945
g3
I687
sg4
I01
sg5
I2
saa(lp946
F491.4697024479318
a(dp947
g3
I10
sg4
I01
sg5
I2
saa(lp948
F492.25999511352785
a(dp949
g3
I57585
sg4
I01
sg5
I2
saa(lp950
F492.5610944921478
a(dp951
g3
I1
sg4
I01
sg5
I2
saa(lp952
F495.0215121317173
a(dp953
g3
I319
sg4
I01
sg5
I2
saa(lp954
F496.4700521141714
a(dp955
g3
I34648
sg4
I01
sg5
I2
saa(lp956
F497.3706676166355
a(dp957
g3
I16732
sg4
I01
sg5
I2
saa(lp958
F497.8792963147072
a(dp959
g3
I2
sg4
I01
sg5
I2
saa(lp960
F498.7382131281787
a(dp961
g3
I64358
sg4
I01
sg5
I2
saa(lp962
F499.2552911210935
a(dp963
g3
I1187
sg4
I01
sg5
I2
saa(lp964
F499.83797760660303
a(dp965
g3
I2
sg4
I01
sg5
I2
saa(lp966
F502.3972022799894
a(dp967
g3
I1135
sg4
I01
sg5
I2
saa(lp968
F502.8352983718893
a(dp969
g3
I14
sg4
I01
sg5
I2
saa(lp970
F502.8927812432698
a(dp971
g3
I12
sg4
I01
sg5
I2
saa(lp972
F503.61372584562406
a(dp973
g3
I999
sg4
I01
sg5
I2
saa(lp974
F504.38025150167516
a(dp975
g3
I73530
sg4
I01
sg5
I2
saa(lp976
F506.41258188269074
a(dp977
g3
I99636
sg4
I01
sg5
I2
saa(lp978
F507.66757660489503
a(dp979
g3
I94413
sg4
I01
sg5
I2
saa(lp980
F508.3899276892724
a(dp981
g3
I12345
sg4
I01
sg5
I2
saa(lp982
F509.00110099195916
a(dp983
g3
I99910
sg4
I01
sg5
I2
saa(lp984
F509.18984797489423
a(dp985
g3
I1
sg4
I01
sg5
I2
saa(lp986
F509.4841647052613
a(dp987
g3
I81
sg4
I01
sg5
I2
saa(lp988
F509.5175588823803
a(dp989
g3
I1
sg4
I01
sg5
I2
saa(lp990
F510.5936424753423
a(dp991
g3
I766
sg4
I01
sg5
I2
saa(lp992
F512.0886482037087
a(dp993
g3
I3
sg4
I01
sg5
I2
saa(lp994
F512.6914082090977
a(dp995
g3
I2880
sg4
I01
sg5
I2
saa(lp996
F512.7873491493983
a(dp997
g3
I72899
sg4
I01
sg5
I2
saa(lp998
F512.9500589964825
a(dp999
g3
I1
sg4
I01
sg5
I2
saa(lp1000
F515.9559754203929
a(dp1001
g3
I1
sg4
I01
sg5
I2
saa(lp1002
F516.960191382948
a(dp1003
g3
I6
sg4
I01
sg5
I2
saa.