(lp0
(lp1
F0.31642376844957126
a(dp2
S'content'
p3
I17
sS'log'
p4
I00
sS'receiver'
p5
I2
saa(lp6
F4.7767216388841724
a(dp7
g3
I3
sg4
I00
sg5
I2
saa(lp8
F5.683294842318913
a(dp9
g3
I35
sg4
I00
sg5
I2
saa(lp10
F6.468679846202377
a(dp11
g3
I20392
sg4
I00
sg5
I2
saa(lp12
F7.0314440614958365
a(dp13
g3
I8461
sg4
I00
sg5
I2
saa(lp14
F7.168828840424102
a(dp15
g3
I1238
sg4
I00
sg5
I2
saa(lp16
F7.797256798561843
a(dp17
g3
I843
sg4
I00
sg5
I2
saa(lp18
F7.950815928945954
a(dp19
g3
I144
sg4
I00
sg5
I2
saa(lp20
F8.865761505999401
a(dp21
g3
I1
sg4
I00
sg5
I2
saa(lp22
F9.026051581203882
a(dp23
g3
I76
sg4
I00
sg5
I2
saa(lp24
F9.247705896482412
a(dp25
g3
I1316
sg4
I00
sg5
I2
saa(lp26
F10.217675538151921
a(dp27
g3
I9
sg4
I00
sg5
I2
saa(lp28
F10.422654261563862
a(dp29
g3
I87
sg4
I00
sg5
I2
saa(lp30
F11.275117394366786
a(dp31
g3
I46
sg4
I00
sg5
I2
saa(lp32
F13.125051019004832
a(dp33
g3
I19336
sg4
I00
sg5
I2
saa(lp34
F13.961375120746915
a(dp35
g3
I24
sg4
I00
sg5
I2
saa(lp36
F16.072096334911844
a(dp37
g3
I183
sg4
I00
sg5
I2
saa(lp38
F16.666709123762523
a(dp39
g3
I1
sg4
I00
sg5
I2
saa(lp40
F16.701842238736667
a(dp41
g3
I23
sg4
I00
sg5
I2
saa(lp42
F16.959574411090895
a(dp43
g3
I14238
sg4
I00
sg5
I2
saa(lp44
F17.168343225211387
a(dp45
g3
I2
sg4
I00
sg5
I2
saa(lp46
F19.04841409620735
a(dp47
g3
I2967
sg4
I00
sg5
I2
saa(lp48
F21.49554533210589
a(dp49
g3
I643
sg4
I00
sg5
I2
saa(lp50
F22.359978375321205
a(dp51
g3
I74966
sg4
I00
sg5
I2
saa(lp52
F23.5453714940439
a(dp53
g3
I2
sg4
I00
sg5
I2
saa(lp54
F25.85305009453008
a(dp55
g3
I2
sg4
I00
sg5
I2
saa(lp56
F25.862989786343345
a(dp57
g3
I1
sg4
I00
sg5
I2
saa(lp58
F26.727786907863116
a(dp59
g3
I65049
sg4
I00
sg5
I2
saa(lp60
F29.706089537939697
a(dp61
g3
I5018
sg4
I00
sg5
I2
saa(lp62
F30.4496600487094
a(dp63
g3
I677
sg4
I00
sg5
I2
saa(lp64
F30.753279002077235
a(dp65
g3
I48900
sg4
I00
sg5
I2
saa(lp66
F31.537701260643104
a(dp67
g3
I9995
sg4
I00
sg5
I2
saa(lp68
F32.380439727615865
a(dp69
g3
I128
sg4
I00
sg5
I2
saa(lp70
F33.26227887555062
a(dp71
g3
I7351
sg4
I00
sg5
I2
saa(lp72
F33.296625091970306
a(dp73
g3
I2943
sg4
I00
sg5
I2
saa(lp74
F33.72123295446007
a(dp75
g3
I142
sg4
I00
sg5
I2
saa(lp76
F34.093785449914776
a(dp77
g3
I133
sg4
I00
sg5
I2
saa(lp78
F34.115720309621175
a(dp79
g3
I15308
sg4
I00
sg5
I2
saa(lp80
F34.79389026008794
a(dp81
g3
I296
sg4
I00
sg5
I2
saa(lp82
F36.216764962582374
a(dp83
g3
I2
sg4
I00
sg5
I2
saa(lp84
F37.34686999789552
a(dp85
g3
I14
sg4
I00
sg5
I2
saa(lp86
F37.37022941449923
a(dp87
g3
I4009
sg4
I00
sg5
I2
saa(lp88
F39.16589479472898
a(dp89
g3
I8
sg4
I00
sg5
I2
saa(lp90
F39.621605533057036
a(dp91
g3
I7
sg4
I00
sg5
I2
saa(lp92
F40.03069311402526
a(dp93
g3
I21
sg4
I00
sg5
I2
saa(lp94
F40.639973676373714
a(dp95
g3
I19367
sg4
I00
sg5
I2
saa(lp96
F41.83898062501037
a(dp97
g3
I1
sg4
I00
sg5
I2
saa(lp98
F43.32241101956066
a(dp99
g3
I37449
sg4
I00
sg5
I2
saa(lp100
F44.034517777171644
a(dp101
g3
I26596
sg4
I00
sg5
I2
saa(lp102
F44.18555957784992
a(dp103
g3
I152
sg4
I00
sg5
I2
saa(lp104
F44.46237523709431
a(dp105
g3
I6
sg4
I00
sg5
I2
saa(lp106
F46.36996753919532
a(dp107
g3
I180
sg4
I00
sg5
I2
saa(lp108
F47.99352964870703
a(dp109
g3
I51
sg4
I00
sg5
I2
saa(lp110
F49.01883017843621
a(dp111
g3
I13888
sg4
I00
sg5
I2
saa(lp112
F49.69290539040304
a(dp113
g3
I307
sg4
I00
sg5
I2
saa(lp114
F51.26330076044674
a(dp115
g3
I6
sg4
I00
sg5
I2
saa(lp116
F51.47895465317731
a(dp117
g3
I4060
sg4
I00
sg5
I2
saa(lp118
F51.96128215088515
a(dp119
g3
I6792
sg4
I00
sg5
I2
saa(lp120
F52.84288570096251
a(dp121
g3
I74
sg4
I00
sg5
I2
saa(lp122
F53.99070538351218
a(dp123
g3
I258
sg4
I00
sg5
I2
saa(lp124
F54.265382778398575
a(dp125
g3
I2
sg4
I00
sg5
I2
saa(lp126
F55.23592823080161
a(dp127
g3
I7322
sg4
I00
sg5
I2
saa(lp128
F59.731914166355956
a(dp129
g3
I194
sg4
I00
sg5
I2
saa(lp130
F60.12008203085389
a(dp131
g3
I11679
sg4
I00
sg5
I2
saa(lp132
F60.55891058884604
a(dp133
g3
I4
sg4
I00
sg5
I2
saa(lp134
F61.05684464980249
a(dp135
g3
I1531
sg4
I00
sg5
I2
saa(lp136
F63.20422064698681
a(dp137
g3
I12417
sg4
I00
sg5
I2
saa(lp138
F63.87139997021256
a(dp139
g3
I26
sg4
I00
sg5
I2
saa(lp140
F63.903309896879804
a(dp141
g3
I165
sg4
I00
sg5
I2
saa(lp142
F65.3874717276119
a(dp143
g3
I5
sg4
I00
sg5
I2
saa(lp144
F66.34203754692773
a(dp145
g3
I1
sg4
I00
sg5
I2
saa(lp146
F66.64441236347683
a(dp147
g3
I1088
sg4
I00
sg5
I2
saa(lp148
F68.14784640229554
a(dp149
g3
I2
sg4
I00
sg5
I2
saa(lp150
F68.95662601608132
a(dp151
g3
I1634
sg4
I00
sg5
I2
saa(lp152
F70.59554437720497
a(dp153
g3
I59185
sg4
I00
sg5
I2
saa(lp154
F71.36901326352225
a(dp155
g3
I30
sg4
I00
sg5
I2
saa(lp156
F72.44812508906769
a(dp157
g3
I17
sg4
I00
sg5
I2
saa(lp158
F72.53503910867958
a(dp159
g3
I1578
sg4
I00
sg5
I2
saa(lp160
F72.6345528426545
a(dp161
g3
I5036
sg4
I00
sg5
I2
saa(lp162
F72.78286282882375
a(dp163
g3
I2151
sg4
I00
sg5
I2
saa(lp164
F72.87701653616976
a(dp165
g3
I1
sg4
I00
sg5
I2
saa(lp166
F73.95709794039337
a(dp167
g3
I82554
sg4
I00
sg5
I2
saa(lp168
F74.13590811655439
a(dp169
g3
I121
sg4
I00
sg5
I2
saa(lp170
F75.16473871442695
a(dp171
g3
I53
sg4
I00
sg5
I2
saa(lp172
F76.87888707468865
a(dp173
g3
I2947
sg4
I00
sg5
I2
saa(lp174
F77.26108002788632
a(dp175
g3
I50512
sg4
I00
sg5
I2
saa(lp176
F77.43790328834083
a(dp177
g3
I56
sg4
I00
sg5
I2
saa(lp178
F77.8602134186023
a(dp179
g3
I22
sg4
I00
sg5
I2
saa(lp180
F78.86294439667738
a(dp181
g3
I80
sg4
I00
sg5
I2
saa(lp182
F81.4775825860202
a(dp183
g3
I372
sg4
I00
sg5
I2
saa(lp184
F81.66063615881605
a(dp185
g3
I6
sg4
I00
sg5
I2
saa(lp186
F82.1974135471177
a(dp187
g3
I4
sg4
I00
sg5
I2
saa(lp188
F86.45638659453927
a(dp189
g3
I3
sg4
I00
sg5
I2
saa(lp190
F87.74060948380637
a(dp191
g3
I13
sg4
I00
sg5
I2
saa(lp192
F87.96161013667177
a(dp193
g3
I44
sg4
I00
sg5
I2
saa(lp194
F88.14016515344457
a(dp195
g3
I3
sg4
I00
sg5
I2
saa(lp196
F89.43557413061484
a(dp197
g3
I974
sg4
I00
sg5
I2
saa(lp198
F90.70652604101937
a(dp199
g3
I27
sg4
I00
sg5
I2
saa(lp200
F93.04749447619483
a(dp201
g3
I6538
sg4
I00
sg5
I2
saa(lp202
F93.77643163405435
a(dp203
g3
I42
sg4
I00
sg5
I2
saa(lp204
F94.47844998588508
a(dp205
g3
I31
sg4
I01
sg5
I2
saa(lp206
F95.24558539403317
a(dp207
g3
I64838
sg4
I01
sg5
I2
saa(lp208
F95.91628174033458
a(dp209
g3
I55297
sg4
I01
sg5
I2
saa(lp210
F95.94554299262823
a(dp211
g3
I2
sg4
I01
sg5
I2
saa.