(lp0
cnumpy.core.multiarray
scalar
p1
(cnumpy
dtype
p2
(S'f8'
p3
I0
I1
tp4
Rp5
(I3
S'<'
p6
NNNI-1
I-1
I0
tp7
bS'l\x13\x97\x8f_y\xde?'
p8
tp9
Rp10
ag1
(g5
S' ,A[\x920\xbf?'
p11
tp12
Rp13
ag1
(g5
S'\xc76A\xcf{\x07\xc8?'
p14
tp15
Rp16
ag1
(g5
S'\x81+\xab\xeb{m\xcb?'
p17
tp18
Rp19
a.